
bomb:     file format elf64-x86-64


Disassembly of section .init:

0000000000400c10 <_init>:
  400c10:	48 83 ec 08          	sub    $0x8,%rsp
  400c14:	48 8b 05 dd 23 20 00 	mov    0x2023dd(%rip),%rax        # 602ff8 <_DYNAMIC+0x1d8>
  400c1b:	48 85 c0             	test   %rax,%rax
  400c1e:	74 02                	je     400c22 <_init+0x12>
  400c20:	ff d0                	callq  *%rax
  400c22:	48 83 c4 08          	add    $0x8,%rsp
  400c26:	c3                   	retq   

Disassembly of section .plt:

0000000000400c30 <getenv@plt-0x10>:
  400c30:	ff 35 d2 23 20 00    	pushq  0x2023d2(%rip)        # 603008 <_GLOBAL_OFFSET_TABLE_+0x8>
  400c36:	ff 25 d4 23 20 00    	jmpq   *0x2023d4(%rip)        # 603010 <_GLOBAL_OFFSET_TABLE_+0x10>
  400c3c:	0f 1f 40 00          	nopl   0x0(%rax)

0000000000400c40 <getenv@plt>:
  400c40:	ff 25 d2 23 20 00    	jmpq   *0x2023d2(%rip)        # 603018 <_GLOBAL_OFFSET_TABLE_+0x18>
  400c46:	68 00 00 00 00       	pushq  $0x0
  400c4b:	e9 e0 ff ff ff       	jmpq   400c30 <_init+0x20>

0000000000400c50 <__errno_location@plt>:
  400c50:	ff 25 ca 23 20 00    	jmpq   *0x2023ca(%rip)        # 603020 <_GLOBAL_OFFSET_TABLE_+0x20>
  400c56:	68 01 00 00 00       	pushq  $0x1
  400c5b:	e9 d0 ff ff ff       	jmpq   400c30 <_init+0x20>

0000000000400c60 <strcpy@plt>:
  400c60:	ff 25 c2 23 20 00    	jmpq   *0x2023c2(%rip)        # 603028 <_GLOBAL_OFFSET_TABLE_+0x28>
  400c66:	68 02 00 00 00       	pushq  $0x2
  400c6b:	e9 c0 ff ff ff       	jmpq   400c30 <_init+0x20>

0000000000400c70 <puts@plt>:
  400c70:	ff 25 ba 23 20 00    	jmpq   *0x2023ba(%rip)        # 603030 <_GLOBAL_OFFSET_TABLE_+0x30>
  400c76:	68 03 00 00 00       	pushq  $0x3
  400c7b:	e9 b0 ff ff ff       	jmpq   400c30 <_init+0x20>

0000000000400c80 <write@plt>:
  400c80:	ff 25 b2 23 20 00    	jmpq   *0x2023b2(%rip)        # 603038 <_GLOBAL_OFFSET_TABLE_+0x38>
  400c86:	68 04 00 00 00       	pushq  $0x4
  400c8b:	e9 a0 ff ff ff       	jmpq   400c30 <_init+0x20>

0000000000400c90 <fclose@plt>:
  400c90:	ff 25 aa 23 20 00    	jmpq   *0x2023aa(%rip)        # 603040 <_GLOBAL_OFFSET_TABLE_+0x40>
  400c96:	68 05 00 00 00       	pushq  $0x5
  400c9b:	e9 90 ff ff ff       	jmpq   400c30 <_init+0x20>

0000000000400ca0 <strlen@plt>:
  400ca0:	ff 25 a2 23 20 00    	jmpq   *0x2023a2(%rip)        # 603048 <_GLOBAL_OFFSET_TABLE_+0x48>
  400ca6:	68 06 00 00 00       	pushq  $0x6
  400cab:	e9 80 ff ff ff       	jmpq   400c30 <_init+0x20>

0000000000400cb0 <system@plt>:
  400cb0:	ff 25 9a 23 20 00    	jmpq   *0x20239a(%rip)        # 603050 <_GLOBAL_OFFSET_TABLE_+0x50>
  400cb6:	68 07 00 00 00       	pushq  $0x7
  400cbb:	e9 70 ff ff ff       	jmpq   400c30 <_init+0x20>

0000000000400cc0 <htons@plt>:
  400cc0:	ff 25 92 23 20 00    	jmpq   *0x202392(%rip)        # 603058 <_GLOBAL_OFFSET_TABLE_+0x58>
  400cc6:	68 08 00 00 00       	pushq  $0x8
  400ccb:	e9 60 ff ff ff       	jmpq   400c30 <_init+0x20>

0000000000400cd0 <printf@plt>:
  400cd0:	ff 25 8a 23 20 00    	jmpq   *0x20238a(%rip)        # 603060 <_GLOBAL_OFFSET_TABLE_+0x60>
  400cd6:	68 09 00 00 00       	pushq  $0x9
  400cdb:	e9 50 ff ff ff       	jmpq   400c30 <_init+0x20>

0000000000400ce0 <rewind@plt>:
  400ce0:	ff 25 82 23 20 00    	jmpq   *0x202382(%rip)        # 603068 <_GLOBAL_OFFSET_TABLE_+0x68>
  400ce6:	68 0a 00 00 00       	pushq  $0xa
  400ceb:	e9 40 ff ff ff       	jmpq   400c30 <_init+0x20>

0000000000400cf0 <dup@plt>:
  400cf0:	ff 25 7a 23 20 00    	jmpq   *0x20237a(%rip)        # 603070 <_GLOBAL_OFFSET_TABLE_+0x70>
  400cf6:	68 0b 00 00 00       	pushq  $0xb
  400cfb:	e9 30 ff ff ff       	jmpq   400c30 <_init+0x20>

0000000000400d00 <close@plt>:
  400d00:	ff 25 72 23 20 00    	jmpq   *0x202372(%rip)        # 603078 <_GLOBAL_OFFSET_TABLE_+0x78>
  400d06:	68 0c 00 00 00       	pushq  $0xc
  400d0b:	e9 20 ff ff ff       	jmpq   400c30 <_init+0x20>

0000000000400d10 <fputc@plt>:
  400d10:	ff 25 6a 23 20 00    	jmpq   *0x20236a(%rip)        # 603080 <_GLOBAL_OFFSET_TABLE_+0x80>
  400d16:	68 0d 00 00 00       	pushq  $0xd
  400d1b:	e9 10 ff ff ff       	jmpq   400c30 <_init+0x20>

0000000000400d20 <fgets@plt>:
  400d20:	ff 25 62 23 20 00    	jmpq   *0x202362(%rip)        # 603088 <_GLOBAL_OFFSET_TABLE_+0x88>
  400d26:	68 0e 00 00 00       	pushq  $0xe
  400d2b:	e9 00 ff ff ff       	jmpq   400c30 <_init+0x20>

0000000000400d30 <tmpfile@plt>:
  400d30:	ff 25 5a 23 20 00    	jmpq   *0x20235a(%rip)        # 603090 <_GLOBAL_OFFSET_TABLE_+0x90>
  400d36:	68 0f 00 00 00       	pushq  $0xf
  400d3b:	e9 f0 fe ff ff       	jmpq   400c30 <_init+0x20>

0000000000400d40 <signal@plt>:
  400d40:	ff 25 52 23 20 00    	jmpq   *0x202352(%rip)        # 603098 <_GLOBAL_OFFSET_TABLE_+0x98>
  400d46:	68 10 00 00 00       	pushq  $0x10
  400d4b:	e9 e0 fe ff ff       	jmpq   400c30 <_init+0x20>

0000000000400d50 <gethostbyname@plt>:
  400d50:	ff 25 4a 23 20 00    	jmpq   *0x20234a(%rip)        # 6030a0 <_GLOBAL_OFFSET_TABLE_+0xa0>
  400d56:	68 11 00 00 00       	pushq  $0x11
  400d5b:	e9 d0 fe ff ff       	jmpq   400c30 <_init+0x20>

0000000000400d60 <fprintf@plt>:
  400d60:	ff 25 42 23 20 00    	jmpq   *0x202342(%rip)        # 6030a8 <_GLOBAL_OFFSET_TABLE_+0xa8>
  400d66:	68 12 00 00 00       	pushq  $0x12
  400d6b:	e9 c0 fe ff ff       	jmpq   400c30 <_init+0x20>

0000000000400d70 <inet_pton@plt>:
  400d70:	ff 25 3a 23 20 00    	jmpq   *0x20233a(%rip)        # 6030b0 <_GLOBAL_OFFSET_TABLE_+0xb0>
  400d76:	68 13 00 00 00       	pushq  $0x13
  400d7b:	e9 b0 fe ff ff       	jmpq   400c30 <_init+0x20>

0000000000400d80 <fflush@plt>:
  400d80:	ff 25 32 23 20 00    	jmpq   *0x202332(%rip)        # 6030b8 <_GLOBAL_OFFSET_TABLE_+0xb8>
  400d86:	68 14 00 00 00       	pushq  $0x14
  400d8b:	e9 a0 fe ff ff       	jmpq   400c30 <_init+0x20>

0000000000400d90 <__isoc99_sscanf@plt>:
  400d90:	ff 25 2a 23 20 00    	jmpq   *0x20232a(%rip)        # 6030c0 <_GLOBAL_OFFSET_TABLE_+0xc0>
  400d96:	68 15 00 00 00       	pushq  $0x15
  400d9b:	e9 90 fe ff ff       	jmpq   400c30 <_init+0x20>

0000000000400da0 <bcopy@plt>:
  400da0:	ff 25 22 23 20 00    	jmpq   *0x202322(%rip)        # 6030c8 <_GLOBAL_OFFSET_TABLE_+0xc8>
  400da6:	68 16 00 00 00       	pushq  $0x16
  400dab:	e9 80 fe ff ff       	jmpq   400c30 <_init+0x20>

0000000000400db0 <cuserid@plt>:
  400db0:	ff 25 1a 23 20 00    	jmpq   *0x20231a(%rip)        # 6030d0 <_GLOBAL_OFFSET_TABLE_+0xd0>
  400db6:	68 17 00 00 00       	pushq  $0x17
  400dbb:	e9 70 fe ff ff       	jmpq   400c30 <_init+0x20>

0000000000400dc0 <fopen@plt>:
  400dc0:	ff 25 12 23 20 00    	jmpq   *0x202312(%rip)        # 6030d8 <_GLOBAL_OFFSET_TABLE_+0xd8>
  400dc6:	68 18 00 00 00       	pushq  $0x18
  400dcb:	e9 60 fe ff ff       	jmpq   400c30 <_init+0x20>

0000000000400dd0 <bzero@plt>:
  400dd0:	ff 25 0a 23 20 00    	jmpq   *0x20230a(%rip)        # 6030e0 <_GLOBAL_OFFSET_TABLE_+0xe0>
  400dd6:	68 19 00 00 00       	pushq  $0x19
  400ddb:	e9 50 fe ff ff       	jmpq   400c30 <_init+0x20>

0000000000400de0 <atoi@plt>:
  400de0:	ff 25 02 23 20 00    	jmpq   *0x202302(%rip)        # 6030e8 <_GLOBAL_OFFSET_TABLE_+0xe8>
  400de6:	68 1a 00 00 00       	pushq  $0x1a
  400deb:	e9 40 fe ff ff       	jmpq   400c30 <_init+0x20>

0000000000400df0 <strcat@plt>:
  400df0:	ff 25 fa 22 20 00    	jmpq   *0x2022fa(%rip)        # 6030f0 <_GLOBAL_OFFSET_TABLE_+0xf0>
  400df6:	68 1b 00 00 00       	pushq  $0x1b
  400dfb:	e9 30 fe ff ff       	jmpq   400c30 <_init+0x20>

0000000000400e00 <sprintf@plt>:
  400e00:	ff 25 f2 22 20 00    	jmpq   *0x2022f2(%rip)        # 6030f8 <_GLOBAL_OFFSET_TABLE_+0xf8>
  400e06:	68 1c 00 00 00       	pushq  $0x1c
  400e0b:	e9 20 fe ff ff       	jmpq   400c30 <_init+0x20>

0000000000400e10 <exit@plt>:
  400e10:	ff 25 ea 22 20 00    	jmpq   *0x2022ea(%rip)        # 603100 <_GLOBAL_OFFSET_TABLE_+0x100>
  400e16:	68 1d 00 00 00       	pushq  $0x1d
  400e1b:	e9 10 fe ff ff       	jmpq   400c30 <_init+0x20>

0000000000400e20 <connect@plt>:
  400e20:	ff 25 e2 22 20 00    	jmpq   *0x2022e2(%rip)        # 603108 <_GLOBAL_OFFSET_TABLE_+0x108>
  400e26:	68 1e 00 00 00       	pushq  $0x1e
  400e2b:	e9 00 fe ff ff       	jmpq   400c30 <_init+0x20>

0000000000400e30 <fwrite@plt>:
  400e30:	ff 25 da 22 20 00    	jmpq   *0x2022da(%rip)        # 603110 <_GLOBAL_OFFSET_TABLE_+0x110>
  400e36:	68 1f 00 00 00       	pushq  $0x1f
  400e3b:	e9 f0 fd ff ff       	jmpq   400c30 <_init+0x20>

0000000000400e40 <sleep@plt>:
  400e40:	ff 25 d2 22 20 00    	jmpq   *0x2022d2(%rip)        # 603118 <_GLOBAL_OFFSET_TABLE_+0x118>
  400e46:	68 20 00 00 00       	pushq  $0x20
  400e4b:	e9 e0 fd ff ff       	jmpq   400c30 <_init+0x20>

0000000000400e50 <__ctype_b_loc@plt>:
  400e50:	ff 25 ca 22 20 00    	jmpq   *0x2022ca(%rip)        # 603120 <_GLOBAL_OFFSET_TABLE_+0x120>
  400e56:	68 21 00 00 00       	pushq  $0x21
  400e5b:	e9 d0 fd ff ff       	jmpq   400c30 <_init+0x20>

0000000000400e60 <socket@plt>:
  400e60:	ff 25 c2 22 20 00    	jmpq   *0x2022c2(%rip)        # 603128 <_GLOBAL_OFFSET_TABLE_+0x128>
  400e66:	68 22 00 00 00       	pushq  $0x22
  400e6b:	e9 c0 fd ff ff       	jmpq   400c30 <_init+0x20>

Disassembly of section .text:

0000000000400e70 <_start>:
  400e70:	31 ed                	xor    %ebp,%ebp
  400e72:	49 89 d1             	mov    %rdx,%r9
  400e75:	5e                   	pop    %rsi
  400e76:	48 89 e2             	mov    %rsp,%rdx
  400e79:	48 83 e4 f0          	and    $0xfffffffffffffff0,%rsp
  400e7d:	50                   	push   %rax
  400e7e:	54                   	push   %rsp
  400e7f:	49 c7 c0 50 22 40 00 	mov    $0x402250,%r8
  400e86:	48 c7 c1 e0 21 40 00 	mov    $0x4021e0,%rcx
  400e8d:	48 c7 c7 66 0f 40 00 	mov    $0x400f66,%rdi
  400e94:	ff 15 56 21 20 00    	callq  *0x202156(%rip)        # 602ff0 <_DYNAMIC+0x1d0>
  400e9a:	f4                   	hlt    
  400e9b:	0f 1f 44 00 00       	nopl   0x0(%rax,%rax,1)

0000000000400ea0 <deregister_tm_clones>:
  400ea0:	b8 ff 37 60 00       	mov    $0x6037ff,%eax
  400ea5:	55                   	push   %rbp
  400ea6:	48 2d f8 37 60 00    	sub    $0x6037f8,%rax
  400eac:	48 83 f8 0e          	cmp    $0xe,%rax
  400eb0:	48 89 e5             	mov    %rsp,%rbp
  400eb3:	76 1b                	jbe    400ed0 <deregister_tm_clones+0x30>
  400eb5:	b8 00 00 00 00       	mov    $0x0,%eax
  400eba:	48 85 c0             	test   %rax,%rax
  400ebd:	74 11                	je     400ed0 <deregister_tm_clones+0x30>
  400ebf:	5d                   	pop    %rbp
  400ec0:	bf f8 37 60 00       	mov    $0x6037f8,%edi
  400ec5:	ff e0                	jmpq   *%rax
  400ec7:	66 0f 1f 84 00 00 00 	nopw   0x0(%rax,%rax,1)
  400ece:	00 00 
  400ed0:	5d                   	pop    %rbp
  400ed1:	c3                   	retq   
  400ed2:	0f 1f 40 00          	nopl   0x0(%rax)
  400ed6:	66 2e 0f 1f 84 00 00 	nopw   %cs:0x0(%rax,%rax,1)
  400edd:	00 00 00 

0000000000400ee0 <register_tm_clones>:
  400ee0:	be f8 37 60 00       	mov    $0x6037f8,%esi
  400ee5:	55                   	push   %rbp
  400ee6:	48 81 ee f8 37 60 00 	sub    $0x6037f8,%rsi
  400eed:	48 c1 fe 03          	sar    $0x3,%rsi
  400ef1:	48 89 e5             	mov    %rsp,%rbp
  400ef4:	48 89 f0             	mov    %rsi,%rax
  400ef7:	48 c1 e8 3f          	shr    $0x3f,%rax
  400efb:	48 01 c6             	add    %rax,%rsi
  400efe:	48 d1 fe             	sar    %rsi
  400f01:	74 15                	je     400f18 <register_tm_clones+0x38>
  400f03:	b8 00 00 00 00       	mov    $0x0,%eax
  400f08:	48 85 c0             	test   %rax,%rax
  400f0b:	74 0b                	je     400f18 <register_tm_clones+0x38>
  400f0d:	5d                   	pop    %rbp
  400f0e:	bf f8 37 60 00       	mov    $0x6037f8,%edi
  400f13:	ff e0                	jmpq   *%rax
  400f15:	0f 1f 00             	nopl   (%rax)
  400f18:	5d                   	pop    %rbp
  400f19:	c3                   	retq   
  400f1a:	66 0f 1f 44 00 00    	nopw   0x0(%rax,%rax,1)

0000000000400f20 <__do_global_dtors_aux>:
  400f20:	80 3d f1 28 20 00 00 	cmpb   $0x0,0x2028f1(%rip)        # 603818 <completed.6963>
  400f27:	75 11                	jne    400f3a <__do_global_dtors_aux+0x1a>
  400f29:	55                   	push   %rbp
  400f2a:	48 89 e5             	mov    %rsp,%rbp
  400f2d:	e8 6e ff ff ff       	callq  400ea0 <deregister_tm_clones>
  400f32:	5d                   	pop    %rbp
  400f33:	c6 05 de 28 20 00 01 	movb   $0x1,0x2028de(%rip)        # 603818 <completed.6963>
  400f3a:	f3 c3                	repz retq 
  400f3c:	0f 1f 40 00          	nopl   0x0(%rax)

0000000000400f40 <frame_dummy>:
  400f40:	bf 18 2e 60 00       	mov    $0x602e18,%edi
  400f45:	48 83 3f 00          	cmpq   $0x0,(%rdi)
  400f49:	75 05                	jne    400f50 <frame_dummy+0x10>
  400f4b:	eb 93                	jmp    400ee0 <register_tm_clones>
  400f4d:	0f 1f 00             	nopl   (%rax)
  400f50:	b8 00 00 00 00       	mov    $0x0,%eax
  400f55:	48 85 c0             	test   %rax,%rax
  400f58:	74 f1                	je     400f4b <frame_dummy+0xb>
  400f5a:	55                   	push   %rbp
  400f5b:	48 89 e5             	mov    %rsp,%rbp
  400f5e:	ff d0                	callq  *%rax
  400f60:	5d                   	pop    %rbp
  400f61:	e9 7a ff ff ff       	jmpq   400ee0 <register_tm_clones>

0000000000400f66 <main>:
  400f66:	55                   	push   %rbp
  400f67:	48 89 e5             	mov    %rsp,%rbp
  400f6a:	48 83 ec 20          	sub    $0x20,%rsp
  400f6e:	89 7d ec             	mov    %edi,-0x14(%rbp)
  400f71:	48 89 75 e0          	mov    %rsi,-0x20(%rbp)
  400f75:	83 7d ec 01          	cmpl   $0x1,-0x14(%rbp)
  400f79:	75 13                	jne    400f8e <main+0x28>
  400f7b:	48 8b 05 8e 28 20 00 	mov    0x20288e(%rip),%rax        # 603810 <stdin@@GLIBC_2.2.5>
  400f82:	48 89 05 97 28 20 00 	mov    %rax,0x202897(%rsp)        # 603820 <infile>
  400f89:	e9 88 00 00 00       	jmpq   401016 <main+0xb0>
  400f8e:	83 7d ec 02          	cmpl   $0x2,-0x14(%rbp)
  400f92:	75 5d                	jne    400ff1 <main+0x8b>
  400f94:	48 8b 45 e0          	mov    -0x20(%rbp),%rax
  400f98:	48 83 c0 08          	add    $0x8,%rax
  400f9c:	48 8b 00             	mov    (%rax),%rax
  400f9f:	48 8d 35 c2 12 00 00 	lea    0x12c2(%rip),%rsi        # 402268 <_IO_stdin_used+0x8>
  400fa6:	48 89 c7             	mov    %rax,%rdi
  400fa9:	e8 12 fe ff ff       	callq  400dc0 <fopen@plt>
  400fae:	48 89 05 6b 28 20 00 	mov    %rax,0x20286b(%rip)        # 603820 <infile>
  400fb5:	48 8b 05 64 28 20 00 	mov    0x202864(%rip),%rax        # 603820 <infile>
  400fbc:	48 85 c0             	test   %rax,%rax
  400fbf:	75 55                	jne    401016 <main+0xb0>
  400fc1:	48 8b 45 e0          	mov    -0x20(%rbp),%rax
  400fc5:	48 83 c0 08          	add    $0x8,%rax
  400fc9:	48 8b 10             	mov    (%rax),%rdx
  400fcc:	48 8b 45 e0          	mov    -0x20(%rbp),%rax
  400fd0:	48 8b 00             	mov    (%rax),%rax
  400fd3:	48 89 c6             	mov    %rax,%rsi
  400fd6:	48 8d 3d 8d 12 00 00 	lea    0x128d(%rip),%rdi        # 40226a <_IO_stdin_used+0xa>
  400fdd:	b8 00 00 00 00       	mov    $0x0,%eax
  400fe2:	e8 e9 fc ff ff       	callq  400cd0 <printf@plt>
  400fe7:	bf 08 00 00 00       	mov    $0x8,%edi
  400fec:	e8 1f fe ff ff       	callq  400e10 <exit@plt>
  400ff1:	48 8b 45 e0          	mov    -0x20(%rbp),%rax
  400ff5:	48 8b 00             	mov    (%rax),%rax
  400ff8:	48 89 c6             	mov    %rax,%rsi
  400ffb:	48 8d 3d 85 12 00 00 	lea    0x1285(%rip),%rdi        # 402287 <_IO_stdin_used+0x27>
  401002:	b8 00 00 00 00       	mov    $0x0,%eax
  401007:	e8 c4 fc ff ff       	callq  400cd0 <printf@plt>
  40100c:	bf 08 00 00 00       	mov    $0x8,%edi
  401011:	e8 fa fd ff ff       	callq  400e10 <exit@plt>
  401016:	e8 1a 08 00 00       	callq  401835 <initialize_bomb>
  40101b:	48 8d 3d 86 12 00 00 	lea    0x1286(%rip),%rdi        # 4022a8 <_IO_stdin_used+0x48>
  401022:	e8 49 fc ff ff       	callq  400c70 <puts@plt>
  401027:	48 8d 3d ba 12 00 00 	lea    0x12ba(%rip),%rdi        # 4022e8 <_IO_stdin_used+0x88>
  40102e:	e8 3d fc ff ff       	callq  400c70 <puts@plt>
  401033:	e8 e5 08 00 00       	callq  40191d <read_line>
  401038:	48 89 45 f8          	mov    %rax,-0x8(%rbp)
  40103c:	48 8b 45 f8          	mov    -0x8(%rbp),%rax
  401040:	48 89 c7             	mov    %rax,%rdi
  401043:	e8 ca 00 00 00       	callq  401112 <phase_1>
  401048:	e8 e7 10 00 00       	callq  402134 <phase_defused>
  40104d:	48 8d 3d c4 12 00 00 	lea    0x12c4(%rip),%rdi        # 402318 <_IO_stdin_used+0xb8>
  401054:	e8 17 fc ff ff       	callq  400c70 <puts@plt>
  401059:	e8 bf 08 00 00       	callq  40191d <read_line>
  40105e:	48 89 45 f8          	mov    %rax,-0x8(%rbp)
  401062:	48 8b 45 f8          	mov    -0x8(%rbp),%rax
  401066:	48 89 c7             	mov    %rax,%rdi
  401069:	e8 cf 00 00 00       	callq  40113d <phase_2>
  40106e:	e8 c1 10 00 00       	callq  402134 <phase_defused>
  401073:	48 8d 3d c7 12 00 00 	lea    0x12c7(%rip),%rdi        # 402341 <_IO_stdin_used+0xe1>
  40107a:	e8 f1 fb ff ff       	callq  400c70 <puts@plt>
  40107f:	e8 99 08 00 00       	callq  40191d <read_line>
  401084:	48 89 45 f8          	mov    %rax,-0x8(%rbp)
  401088:	48 8b 45 f8          	mov    -0x8(%rbp),%rax
  40108c:	48 89 c7             	mov    %rax,%rdi
  40108f:	e8 1a 01 00 00       	callq  4011ae <phase_3>
  401094:	e8 9b 10 00 00       	callq  402134 <phase_defused>
  401099:	48 8d 3d bf 12 00 00 	lea    0x12bf(%rip),%rdi        # 40235f <_IO_stdin_used+0xff>
  4010a0:	e8 cb fb ff ff       	callq  400c70 <puts@plt>
  4010a5:	e8 73 08 00 00       	callq  40191d <read_line>
  4010aa:	48 89 45 f8          	mov    %rax,-0x8(%rbp)
  4010ae:	48 8b 45 f8          	mov    -0x8(%rbp),%rax
  4010b2:	48 89 c7             	mov    %rax,%rdi
  4010b5:	e8 ef 01 00 00       	callq  4012a9 <phase_4>
  4010ba:	e8 75 10 00 00       	callq  402134 <phase_defused>
  4010bf:	48 8d 3d aa 12 00 00 	lea    0x12aa(%rip),%rdi        # 402370 <_IO_stdin_used+0x110>
  4010c6:	e8 a5 fb ff ff       	callq  400c70 <puts@plt>
  4010cb:	e8 4d 08 00 00       	callq  40191d <read_line>
  4010d0:	48 89 45 f8          	mov    %rax,-0x8(%rbp)
  4010d4:	48 8b 45 f8          	mov    -0x8(%rbp),%rax
  4010d8:	48 89 c7             	mov    %rax,%rdi
  4010db:	e8 24 02 00 00       	callq  401304 <phase_5>
  4010e0:	e8 4f 10 00 00       	callq  402134 <phase_defused>
  4010e5:	48 8d 3d a8 12 00 00 	lea    0x12a8(%rip),%rdi        # 402394 <_IO_stdin_used+0x134>
  4010ec:	e8 7f fb ff ff       	callq  400c70 <puts@plt>
  4010f1:	e8 27 08 00 00       	callq  40191d <read_line>
  4010f6:	48 89 45 f8          	mov    %rax,-0x8(%rbp)
  4010fa:	48 8b 45 f8          	mov    -0x8(%rbp),%rax
  4010fe:	48 89 c7             	mov    %rax,%rdi
  401101:	e8 47 03 00 00       	callq  40144d <phase_6>
  401106:	e8 29 10 00 00       	callq  402134 <phase_defused>
  40110b:	b8 00 00 00 00       	mov    $0x0,%eax
  401110:	c9                   	leaveq 
  401111:	c3                   	retq   

0000000000401112 <phase_1>:
  401112:	55                   	push   %rbp
  401113:	48 89 e5             	mov    %rsp,%rbp
  401116:	48 83 ec 10          	sub    $0x10,%rsp
  40111a:	48 89 7d f8          	mov    %rdi,-0x8(%rbp)
  40111e:	48 8b 45 f8          	mov    -0x8(%rbp),%rax
  401122:	48 8d 35 8f 12 00 00 	lea    0x128f(%rip),%rsi        # 4023b8 <_IO_stdin_used+0x158>
  401129:	48 89 c7             	mov    %rax,%rdi
  40112c:	e8 8e 05 00 00       	callq  4016bf <strings_not_equal>
  401131:	85 c0                	test   %eax,%eax
  401133:	74 05                	je     40113a <phase_1+0x28>
  401135:	e8 be 0f 00 00       	callq  4020f8 <explode_bomb>
  40113a:	90                   	nop
  40113b:	c9                   	leaveq 
  40113c:	c3                   	retq   

000000000040113d <phase_2>:
  40113d:	55                   	push   %rbp
  40113e:	48 89 e5             	mov    %rsp,%rbp
  401141:	48 83 ec 30          	sub    $0x30,%rsp
  401145:	48 89 7d d8          	mov    %rdi,-0x28(%rbp)
  401149:	c7 45 f8 00 00 00 00 	movl   $0x0,-0x8(%rbp)
  401150:	48 8d 55 e0          	lea    -0x20(%rbp),%rdx
  401154:	48 8b 45 d8          	mov    -0x28(%rbp),%rax
  401158:	48 89 d6             	mov    %rdx,%rsi
  40115b:	48 89 c7             	mov    %rax,%rdi
  40115e:	e8 bf 04 00 00      	callq  401622 <read_six_numbers>
  401163:	c7 45 fc 00 00 00 00 	movl   $0x0,-0x4(%rbp)
  40116a:	eb 2e                	jmp    40119a <phase_2+0x5d>
  40116c:	8b 45 fc             	mov    -0x4(%rbp),%eax
  40116f:	48 98                	cltq   
  401171:	8b 54 85 e0          	mov    -0x20(%rbp,%rax,4),%edx
  401175:	8b 45 fc             	mov    -0x4(%rbp),%eax
  401178:	83 c0 03             	add    $0x3,%eax
  40117b:	48 98                	cltq   
  40117d:	8b 44 85 e0          	mov    -0x20(%rbp,%rax,4),%eax
  401181:	39 c2                	cmp    %eax,%edx
  401183:	74 05                	je     40118a <phase_2+0x4d>
  401185:	e8 6e 0f 00 00       	callq  4020f8 <explode_bomb>
  40118a:	8b 45 fc             	mov    -0x4(%rbp),%eax
  40118d:	48 98                	cltq   
  40118f:	8b 44 85 e0          	mov    -0x20(%rbp,%rax,4),%eax
  401193:	01 45 f8             	add    %eax,-0x8(%rbp)
  401196:	83 45 fc 01          	addl   $0x1,-0x4(%rbp)
  40119a:	83 7d fc 02          	cmpl   $0x2,-0x4(%rbp)
  40119e:	7e cc                	jle    40116c <phase_2+0x2f>
  4011a0:	83 7d f8 00          	cmpl   $0x0,-0x8(%rbp)
  4011a4:	75 05                	jne    4011ab <phase_2+0x6e>
  4011a6:	e8 4d 0f 00 00       	callq  4020f8 <explode_bomb>
  4011ab:	90                   	nop
  4011ac:	c9                   	leaveq 
  4011ad:	c3                   	retq   

00000000004011ae <phase_3>:
  4011ae:	55                   	push   %rbp
  4011af:	48 89 e5             	mov    %rsp,%rbp
  4011b2:	48 83 ec 20          	sub    $0x20,%rsp
  4011b6:	48 89 7d e8          	mov    %rdi,-0x18(%rbp)
  4011ba:	c7 45 fc 00 00 00 00 	movl   $0x0,-0x4(%rbp)
  4011c1:	c7 45 f8 00 00 00 00 	movl   $0x0,-0x8(%rbp)
  4011c8:	48 8d 4d f0          	lea    -0x10(%rbp),%rcx
  4011cc:	48 8d 55 f4          	lea    -0xc(%rbp),%rdx
  4011d0:	48 8b 45 e8          	mov    -0x18(%rbp),%rax
  4011d4:	48 8d 35 1b 12 00 00 	lea    0x121b(%rip),%rsi        # 4023f6 <_IO_stdin_used+0x196>
  4011db:	48 89 c7             	mov    %rax,%rdi
  4011de:	b8 00 00 00 00       	mov    $0x0,%eax
  4011e3:	e8 a8 fb ff ff       	callq  400d90 <__isoc99_sscanf@plt>
  4011e8:	89 45 f8             	mov    %eax,-0x8(%rbp)
  4011eb:	83 7d f8 01          	cmpl   $0x1,-0x8(%rbp)
  4011ef:	7f 05                	jg     4011f6 <phase_3+0x48>
  4011f1:	e8 02 0f 00 00       	callq  4020f8 <explode_bomb>
  4011f6:	8b 45 f4             	mov    -0xc(%rbp),%eax
  4011f9:	83 f8 07             	cmp    $0x7,%eax
  4011fc:	77 6b                	ja     401269 <phase_3+0xbb>
  4011fe:	89 c0                	mov    %eax,%eax
  401200:	48 8d 14 85 00 00 00 	lea    0x0(,%rax,4),%rdx
  401207:	00 
  401208:	48 8d 05 ed 11 00 00 	lea    0x11ed(%rip),%rax        # 4023fc <_IO_stdin_used+0x19c>
  40120f:	8b 04 02             	mov    (%rdx,%rax,1),%eax
  401212:	48 63 d0             	movslq %eax,%rdx
  401215:	48 8d 05 e0 11 00 00 	lea    0x11e0(%rip),%rax        # 4023fc <_IO_stdin_used+0x19c>
  40121c:	48 01 d0             	add    %rdx,%rax
  40121f:	ff e0                	jmpq   *%rax
  401221:	c7 45 fc 04 02 00 00 	movl   $0x204,-0x4(%rbp)
  401228:	eb 44                	jmp    40126e <phase_3+0xc0>
  40122a:	c7 45 fc ec 00 00 00 	movl   $0xec,-0x4(%rbp)
  401231:	eb 3b                	jmp    40126e <phase_3+0xc0>
  401233:	c7 45 fc d8 03 00 00 	movl   $0x3d8,-0x4(%rbp)
  40123a:	eb 32                	jmp    40126e <phase_3+0xc0>
  40123c:	c7 45 fc 1b 02 00 00 	movl   $0x21b,-0x4(%rbp)
  401243:	eb 29                	jmp    40126e <phase_3+0xc0>
  401245:	c7 45 fc 4e 02 00 00 	movl   $0x24e,-0x4(%rbp)
  40124c:	eb 20                	jmp    40126e <phase_3+0xc0>
  40124e:	c7 45 fc 67 02 00 00 	movl   $0x267,-0x4(%rbp)
  401255:	eb 17                	jmp    40126e <phase_3+0xc0>
  401257:	c7 45 fc 38 01 00 00 	movl   $0x138,-0x4(%rbp)
  40125e:	eb 0e                	jmp    40126e <phase_3+0xc0>
  401260:	c7 45 fc 56 00 00 00 	movl   $0x56,-0x4(%rbp)
  401267:	eb 05                	jmp    40126e <phase_3+0xc0>
  401269:	e8 8a 0e 00 00       	callq  4020f8 <explode_bomb>
  40126e:	8b 45 f0             	mov    -0x10(%rbp),%eax
  401271:	39 45 fc             	cmp    %eax,-0x4(%rbp)
  401274:	74 05                	je     40127b <phase_3+0xcd>
  401276:	e8 7d 0e 00 00       	callq  4020f8 <explode_bomb>
  40127b:	90                   	nop
  40127c:	c9                   	leaveq 
  40127d:	c3                   	retq   

000000000040127e <func4>:
  40127e:	55                   	push   %rbp
  40127f:	48 89 e5             	mov    %rsp,%rbp
  401282:	48 83 ec 10          	sub    $0x10,%rsp
  401286:	89 7d fc             	mov    %edi,-0x4(%rbp)
  401289:	83 7d fc 01          	cmpl   $0x1,-0x4(%rbp)
  40128d:	7f 07                	jg     401296 <func4+0x18>
  40128f:	b8 01 00 00 00       	mov    $0x1,%eax
  401294:	eb 11                	jmp    4012a7 <func4+0x29>
  401296:	8b 45 fc             	mov    -0x4(%rbp),%eax
  401299:	83 e8 01             	sub    $0x1,%eax
  40129c:	89 c7                	mov    %eax,%edi
  40129e:	e8 db ff ff ff       	callq  40127e <func4>
  4012a3:	0f af 45 fc          	imul   -0x4(%rbp),%eax
  4012a7:	c9                   	leaveq 
  4012a8:	c3                   	retq   

00000000004012a9 <phase_4>:
  4012a9:	55                   	push   %rbp
  4012aa:	48 89 e5             	mov    %rsp,%rbp
  4012ad:	48 83 ec 20          	sub    $0x20,%rsp
  4012b1:	48 89 7d e8          	mov    %rdi,-0x18(%rbp)
  4012b5:	48 8d 55 f4          	lea    -0xc(%rbp),%rdx
  4012b9:	48 8b 45 e8          	mov    -0x18(%rbp),%rax
  4012bd:	48 8d 35 58 11 00 00 	lea    0x1158(%rip),%rsi        # 40241c <_IO_stdin_used+0x1bc>
  4012c4:	48 89 c7             	mov    %rax,%rdi
  4012c7:	b8 00 00 00 00       	mov    $0x0,%eax
  4012cc:	e8 bf fa ff ff       	callq  400d90 <__isoc99_sscanf@plt>
  4012d1:	89 45 fc             	mov    %eax,-0x4(%rbp)
  4012d4:	83 7d fc 01          	cmpl   $0x1,-0x4(%rbp)
  4012d8:	75 07                	jne    4012e1 <phase_4+0x38>
  4012da:	8b 45 f4             	mov    -0xc(%rbp),%eax
  4012dd:	85 c0                	test   %eax,%eax
  4012df:	7f 05                	jg     4012e6 <phase_4+0x3d>
  4012e1:	e8 12 0e 00 00       	callq  4020f8 <explode_bomb>
  4012e6:	8b 45 f4             	mov    -0xc(%rbp),%eax
  4012e9:	89 c7                	mov    %eax,%edi
  4012eb:	e8 8e ff ff ff       	callq  40127e <func4>
  4012f0:	89 45 f8             	mov    %eax,-0x8(%rbp)
  4012f3:	81 7d f8 00 5f 37 00 	cmpl   $0x375f00,-0x8(%rbp)
  4012fa:	74 05                	je     401301 <phase_4+0x58>
  4012fc:	e8 f7 0d 00 00       	callq  4020f8 <explode_bomb>
  401301:	90                   	nop
  401302:	c9                   	leaveq 
  401303:	c3                   	retq   

0000000000401304 <phase_5>:
  401304:	55                   	push   %rbp
  401305:	48 89 e5             	mov    %rsp,%rbp
  401308:	48 83 ec 20          	sub    $0x20,%rsp
  40130c:	48 89 7d e8          	mov    %rdi,-0x18(%rbp)
  401310:	48 8b 45 e8          	mov    -0x18(%rbp),%rax
  401314:	48 89 c7             	mov    %rax,%rdi
  401317:	e8 71 03 00 00       	callq  40168d <string_length>
  40131c:	89 45 f8             	mov    %eax,-0x8(%rbp)
  40131f:	83 7d f8 06          	cmpl   $0x6,-0x8(%rbp)
  401323:	74 05                	je     40132a <phase_5+0x26>
  401325:	e8 ce 0d 00 00       	callq  4020f8 <explode_bomb>
  40132a:	c7 45 fc 00 00 00 00 	movl   $0x0,-0x4(%rbp)
  401331:	eb 31                	jmp    401364 <phase_5+0x60>
  401333:	8b 45 fc             	mov    -0x4(%rbp),%eax
  401336:	48 63 d0             	movslq %eax,%rdx
  401339:	48 8b 45 e8          	mov    -0x18(%rbp),%rax
  40133d:	48 01 d0             	add    %rdx,%rax
  401340:	0f b6 00             	movzbl (%rax),%eax
  401343:	0f be c0             	movsbl %al,%eax
  401346:	83 e0 0f             	and    $0xf,%eax
  401349:	48 63 d0             	movslq %eax,%rdx
  40134c:	48 8d 05 3d 23 20 00 	lea    0x20233d(%rip),%rax        # 603690 <array.2953>
  401353:	0f b6 14 02          	movzbl (%rdx,%rax,1),%edx
  401357:	8b 45 fc             	mov    -0x4(%rbp),%eax
  40135a:	48 98                	cltq   
  40135c:	88 54 05 f1          	mov    %dl,-0xf(%rbp,%rax,1)
  401360:	83 45 fc 01          	addl   $0x1,-0x4(%rbp)
  401364:	83 7d fc 05          	cmpl   $0x5,-0x4(%rbp)
  401368:	7e c9                	jle    401333 <phase_5+0x2f>
  40136a:	c6 45 f7 00          	movb   $0x0,-0x9(%rbp)
  40136e:	48 8d 45 f1          	lea    -0xf(%rbp),%rax
  401372:	48 8d 35 a6 10 00 00 	lea    0x10a6(%rip),%rsi        # 40241f <_IO_stdin_used+0x1bf>
  401379:	48 89 c7             	mov    %rax,%rdi
  40137c:	e8 3e 03 00 00       	callq  4016bf <strings_not_equal>
  401381:	85 c0                	test   %eax,%eax
  401383:	74 05                	je     40138a <phase_5+0x86>
  401385:	e8 6e 0d 00 00       	callq  4020f8 <explode_bomb>
  40138a:	90                   	nop
  40138b:	c9                   	leaveq 
  40138c:	c3                   	retq   

000000000040138d <fun6>:
  40138d:	55                   	push   %rbp
  40138e:	48 89 e5             	mov    %rsp,%rbp
  401391:	48 89 7d d8          	mov    %rdi,-0x28(%rbp)
  401395:	48 8b 45 d8          	mov    -0x28(%rbp),%rax
  401399:	48 89 45 f8          	mov    %rax,-0x8(%rbp)
  40139d:	48 8b 45 d8          	mov    -0x28(%rbp),%rax
  4013a1:	48 89 45 f8          	mov    %rax,-0x8(%rbp)
  4013a5:	48 8b 45 d8          	mov    -0x28(%rbp),%rax
  4013a9:	48 8b 40 08          	mov    0x8(%rax),%rax
  4013ad:	48 89 45 f0          	mov    %rax,-0x10(%rbp)
  4013b1:	48 8b 45 f8          	mov    -0x8(%rbp),%rax
  4013b5:	48 c7 40 08 00 00 00 	movq   $0x0,0x8(%rax)
  4013bc:	00 
  4013bd:	eb 7d                	jmp    40143c <fun6+0xaf>
  4013bf:	48 8b 45 f8          	mov    -0x8(%rbp),%rax
  4013c3:	48 89 45 e0          	mov    %rax,-0x20(%rbp)
  4013c7:	48 8b 45 f8          	mov    -0x8(%rbp),%rax
  4013cb:	48 89 45 e8          	mov    %rax,-0x18(%rbp)
  4013cf:	eb 14                	jmp    4013e5 <fun6+0x58>
  4013d1:	48 8b 45 e0          	mov    -0x20(%rbp),%rax
  4013d5:	48 89 45 e8          	mov    %rax,-0x18(%rbp)
  4013d9:	48 8b 45 e0          	mov    -0x20(%rbp),%rax
  4013dd:	48 8b 40 08          	mov    0x8(%rax),%rax
  4013e1:	48 89 45 e0          	mov    %rax,-0x20(%rbp)
  4013e5:	48 83 7d e0 00       	cmpq   $0x0,-0x20(%rbp)
  4013ea:	74 10                	je     4013fc <fun6+0x6f>
  4013ec:	48 8b 45 e0          	mov    -0x20(%rbp),%rax
  4013f0:	8b 10                	mov    (%rax),%edx
  4013f2:	48 8b 45 f0          	mov    -0x10(%rbp),%rax
  4013f6:	8b 00                	mov    (%rax),%eax
  4013f8:	39 c2                	cmp    %eax,%edx
  4013fa:	7f d5                	jg     4013d1 <fun6+0x44>
  4013fc:	48 8b 45 e8          	mov    -0x18(%rbp),%rax
  401400:	48 3b 45 e0          	cmp    -0x20(%rbp),%rax
  401404:	74 0e                	je     401414 <fun6+0x87>
  401406:	48 8b 45 e8          	mov    -0x18(%rbp),%rax
  40140a:	48 8b 55 f0          	mov    -0x10(%rbp),%rdx
  40140e:	48 89 50 08          	mov    %rdx,0x8(%rax)
  401412:	eb 08                	jmp    40141c <fun6+0x8f>
  401414:	48 8b 45 f0          	mov    -0x10(%rbp),%rax
  401418:	48 89 45 f8          	mov    %rax,-0x8(%rbp)
  40141c:	48 8b 45 f0          	mov    -0x10(%rbp),%rax
  401420:	48 8b 40 08          	mov    0x8(%rax),%rax
  401424:	48 89 45 e8          	mov    %rax,-0x18(%rbp)
  401428:	48 8b 45 f0          	mov    -0x10(%rbp),%rax
  40142c:	48 8b 55 e0          	mov    -0x20(%rbp),%rdx
  401430:	48 89 50 08          	mov    %rdx,0x8(%rax)
  401434:	48 8b 45 e8          	mov    -0x18(%rbp),%rax
  401438:	48 89 45 f0          	mov    %rax,-0x10(%rbp)
  40143c:	48 83 7d f0 00       	cmpq   $0x0,-0x10(%rbp)
  401441:	0f 85 78 ff ff ff    	jne    4013bf <fun6+0x32>
  401447:	48 8b 45 f8          	mov    -0x8(%rbp),%rax
  40144b:	5d                   	pop    %rbp
  40144c:	c3                   	retq   

000000000040144d <phase_6>:
  40144d:	55                   	push   %rbp
  40144e:	48 89 e5             	mov    %rsp,%rbp
  401451:	48 83 ec 30          	sub    $0x30,%rsp
  401455:	48 89 7d d8          	mov    %rdi,-0x28(%rbp)
  401459:	48 8d 05 b0 22 20 00 	lea    0x2022b0(%rip),%rax        # 603710 <node1>
  401460:	48 89 45 e8          	mov    %rax,-0x18(%rbp)
  401464:	48 8b 45 d8          	mov    -0x28(%rbp),%rax
  401468:	48 89 c7             	mov    %rax,%rdi
  40146b:	e8 70 f9 ff ff       	callq  400de0 <atoi@plt>
  401470:	89 45 e4             	mov    %eax,-0x1c(%rbp)
  401473:	48 8b 45 e8          	mov    -0x18(%rbp),%rax
  401477:	48 89 c7             	mov    %rax,%rdi
  40147a:	e8 0e ff ff ff       	callq  40138d <fun6>
  40147f:	48 89 45 e8          	mov    %rax,-0x18(%rbp)
  401483:	48 8b 45 e8          	mov    -0x18(%rbp),%rax
  401487:	48 89 45 f0          	mov    %rax,-0x10(%rbp)
  40148b:	c7 45 fc 01 00 00 00 	movl   $0x1,-0x4(%rbp)
  401492:	eb 10                	jmp    4014a4 <phase_6+0x57>
  401494:	48 8b 45 f0          	mov    -0x10(%rbp),%rax
  401498:	48 8b 40 08          	mov    0x8(%rax),%rax
  40149c:	48 89 45 f0          	mov    %rax,-0x10(%rbp)
  4014a0:	83 45 fc 01          	addl   $0x1,-0x4(%rbp)
  4014a4:	83 7d fc 08          	cmpl   $0x8,-0x4(%rbp)
  4014a8:	75 ea                	jne    401494 <phase_6+0x47>
  4014aa:	48 8b 45 f0          	mov    -0x10(%rbp),%rax
  4014ae:	8b 00                	mov    (%rax),%eax
  4014b0:	3b 45 e4             	cmp    -0x1c(%rbp),%eax
  4014b3:	74 05                	je     4014ba <phase_6+0x6d>
  4014b5:	e8 3e 0c 00 00       	callq  4020f8 <explode_bomb>
  4014ba:	90                   	nop
  4014bb:	c9                   	leaveq 
  4014bc:	c3                   	retq   

00000000004014bd <fun7>:
  4014bd:	55                   	push   %rbp
  4014be:	48 89 e5             	mov    %rsp,%rbp
  4014c1:	48 83 ec 10          	sub    $0x10,%rsp
  4014c5:	48 89 7d f8          	mov    %rdi,-0x8(%rbp)
  4014c9:	89 75 f4             	mov    %esi,-0xc(%rbp)
  4014cc:	48 83 7d f8 00       	cmpq   $0x0,-0x8(%rbp)
  4014d1:	75 07                	jne    4014da <fun7+0x1d>
  4014d3:	b8 ff ff ff ff       	mov    $0xffffffff,%eax
  4014d8:	eb 50                	jmp    40152a <fun7+0x6d>
  4014da:	48 8b 45 f8          	mov    -0x8(%rbp),%rax
  4014de:	8b 00                	mov    (%rax),%eax
  4014e0:	3b 45 f4             	cmp    -0xc(%rbp),%eax
  4014e3:	7e 19                	jle    4014fe <fun7+0x41>
  4014e5:	48 8b 45 f8          	mov    -0x8(%rbp),%rax
  4014e9:	48 8b 40 08          	mov    0x8(%rax),%rax
  4014ed:	8b 55 f4             	mov    -0xc(%rbp),%edx
  4014f0:	89 d6                	mov    %edx,%esi
  4014f2:	48 89 c7             	mov    %rax,%rdi
  4014f5:	e8 c3 ff ff ff       	callq  4014bd <fun7>
  4014fa:	01 c0                	add    %eax,%eax
  4014fc:	eb 2c                	jmp    40152a <fun7+0x6d>
  4014fe:	48 8b 45 f8          	mov    -0x8(%rbp),%rax
  401502:	8b 00                	mov    (%rax),%eax
  401504:	3b 45 f4             	cmp    -0xc(%rbp),%eax
  401507:	75 07                	jne    401510 <fun7+0x53>
  401509:	b8 00 00 00 00       	mov    $0x0,%eax
  40150e:	eb 1a                	jmp    40152a <fun7+0x6d>
  401510:	48 8b 45 f8          	mov    -0x8(%rbp),%rax
  401514:	48 8b 40 10          	mov    0x10(%rax),%rax
  401518:	8b 55 f4             	mov    -0xc(%rbp),%edx
  40151b:	89 d6                	mov    %edx,%esi
  40151d:	48 89 c7             	mov    %rax,%rdi
  401520:	e8 98 ff ff ff       	callq  4014bd <fun7>
  401525:	01 c0                	add    %eax,%eax
  401527:	83 c0 01             	add    $0x1,%eax
  40152a:	c9                   	leaveq 
  40152b:	c3                   	retq   

000000000040152c <secret_phase>:
  40152c:	55                   	push   %rbp
  40152d:	48 89 e5             	mov    %rsp,%rbp
  401530:	48 83 ec 10          	sub    $0x10,%rsp
  401534:	e8 e4 03 00 00       	callq  40191d <read_line>
  401539:	48 89 45 f8          	mov    %rax,-0x8(%rbp)
  40153d:	48 8b 45 f8          	mov    -0x8(%rbp),%rax
  401541:	48 89 c7             	mov    %rax,%rdi
  401544:	e8 97 f8 ff ff       	callq  400de0 <atoi@plt>
  401549:	89 45 f4             	mov    %eax,-0xc(%rbp)
  40154c:	83 7d f4 00          	cmpl   $0x0,-0xc(%rbp)
  401550:	7e 09                	jle    40155b <secret_phase+0x2f>
  401552:	81 7d f4 e9 03 00 00 	cmpl   $0x3e9,-0xc(%rbp)
  401559:	7e 05                	jle    401560 <secret_phase+0x34>
  40155b:	e8 98 0b 00 00       	callq  4020f8 <explode_bomb>
  401560:	8b 45 f4             	mov    -0xc(%rbp),%eax
  401563:	89 c6                	mov    %eax,%esi
  401565:	48 8d 3d 74 22 20 00 	lea    0x202274(%rip),%rdi        # 6037e0 <n1>
  40156c:	e8 4c ff ff ff       	callq  4014bd <fun7>
  401571:	89 45 f0             	mov    %eax,-0x10(%rbp)
  401574:	83 7d f0 07          	cmpl   $0x7,-0x10(%rbp)
  401578:	74 05                	je     40157f <secret_phase+0x53>
  40157a:	e8 79 0b 00 00       	callq  4020f8 <explode_bomb>
  40157f:	48 8d 3d a2 0e 00 00 	lea    0xea2(%rip),%rdi        # 402428 <_IO_stdin_used+0x1c8>
  401586:	e8 e5 f6 ff ff       	callq  400c70 <puts@plt>
  40158b:	e8 a4 0b 00 00       	callq  402134 <phase_defused>
  401590:	90                   	nop
  401591:	c9                   	leaveq 
  401592:	c3                   	retq   

0000000000401593 <sig_handler>:
  401593:	55                   	push   %rbp
  401594:	48 89 e5             	mov    %rsp,%rbp
  401597:	48 83 ec 10          	sub    $0x10,%rsp
  40159b:	89 7d fc             	mov    %edi,-0x4(%rbp)
  40159e:	48 8d 3d ab 0e 00 00 	lea    0xeab(%rip),%rdi        # 402450 <_IO_stdin_used+0x1f0>
  4015a5:	e8 c6 f6 ff ff       	callq  400c70 <puts@plt>
  4015aa:	bf 03 00 00 00       	mov    $0x3,%edi
  4015af:	e8 8c f8 ff ff       	callq  400e40 <sleep@plt>
  4015b4:	48 8d 3d cd 0e 00 00 	lea    0xecd(%rip),%rdi        # 402488 <_IO_stdin_used+0x228>
  4015bb:	b8 00 00 00 00       	mov    $0x0,%eax
  4015c0:	e8 0b f7 ff ff       	callq  400cd0 <printf@plt>
  4015c5:	48 8b 05 34 22 20 00 	mov    0x202234(%rip),%rax        # 603800 <stdout@@GLIBC_2.2.5>
  4015cc:	48 89 c7             	mov    %rax,%rdi
  4015cf:	e8 ac f7 ff ff       	callq  400d80 <fflush@plt>
  4015d4:	bf 01 00 00 00       	mov    $0x1,%edi
  4015d9:	e8 62 f8 ff ff       	callq  400e40 <sleep@plt>
  4015de:	48 8d 3d ab 0e 00 00 	lea    0xeab(%rip),%rdi        # 402490 <_IO_stdin_used+0x230>
  4015e5:	e8 86 f6 ff ff       	callq  400c70 <puts@plt>
  4015ea:	bf 10 00 00 00       	mov    $0x10,%edi
  4015ef:	e8 1c f8 ff ff       	callq  400e10 <exit@plt>

00000000004015f4 <invalid_phase>:
  4015f4:	55                   	push   %rbp
  4015f5:	48 89 e5             	mov    %rsp,%rbp
  4015f8:	48 83 ec 10          	sub    $0x10,%rsp
  4015fc:	48 89 7d f8          	mov    %rdi,-0x8(%rbp)
  401600:	48 8b 45 f8          	mov    -0x8(%rbp),%rax
  401604:	48 89 c6             	mov    %rax,%rsi
  401607:	48 8d 3d 8a 0e 00 00 	lea    0xe8a(%rip),%rdi        # 402498 <_IO_stdin_used+0x238>
  40160e:	b8 00 00 00 00       	mov    $0x0,%eax
  401613:	e8 b8 f6 ff ff       	callq  400cd0 <printf@plt>
  401618:	bf 08 00 00 00       	mov    $0x8,%edi
  40161d:	e8 ee f7 ff ff       	callq  400e10 <exit@plt>

0000000000401622 <read_six_numbers>:
  401622:	55                   	push   %rbp
  401623:	48 89 e5             	mov    %rsp,%rbp
  401626:	48 83 ec 20          	sub    $0x20,%rsp
  40162a:	48 89 7d e8          	mov    %rdi,-0x18(%rbp)
  40162e:	48 89 75 e0          	mov    %rsi,-0x20(%rbp)
  401632:	48 8b 45 e0          	mov    -0x20(%rbp),%rax
  401636:	48 8d 78 14          	lea    0x14(%rax),%rdi
  40163a:	48 8b 45 e0          	mov    -0x20(%rbp),%rax
  40163e:	48 8d 70 10          	lea    0x10(%rax),%rsi
  401642:	48 8b 45 e0          	mov    -0x20(%rbp),%rax
  401646:	4c 8d 48 0c          	lea    0xc(%rax),%r9
  40164a:	48 8b 45 e0          	mov    -0x20(%rbp),%rax
  40164e:	4c 8d 40 08          	lea    0x8(%rax),%r8
  401652:	48 8b 45 e0          	mov    -0x20(%rbp),%rax
  401656:	48 8d 48 04          	lea    0x4(%rax),%rcx
  40165a:	48 8b 55 e0          	mov    -0x20(%rbp),%rdx
  40165e:	48 8b 45 e8          	mov    -0x18(%rbp),%rax
  401662:	57                   	push   %rdi
  401663:	56                   	push   %rsi
  401664:	48 8d 35 3e 0e 00 00 	lea    0xe3e(%rip),%rsi        # 4024a9 <_IO_stdin_used+0x249>
  40166b:	48 89 c7             	mov    %rax,%rdi
  40166e:	b8 00 00 00 00       	mov    $0x0,%eax
  401673:	e8 18 f7 ff ff       	callq  400d90 <__isoc99_sscanf@plt>
  401678:	48 83 c4 10          	add    $0x10,%rsp
  40167c:	89 45 fc             	mov    %eax,-0x4(%rbp)
  40167f:	83 7d fc 05          	cmpl   $0x5,-0x4(%rbp)
  401683:	7f 05                	jg     40168a <read_six_numbers+0x68>
  401685:	e8 6e 0a 00 00       	callq  4020f8 <explode_bomb>
  40168a:	90                   	nop
  40168b:	c9                   	leaveq 
  40168c:	c3                   	retq   
4
000000000040168d <string_length>:
  40168d:	55                   	push   %rbp
  40168e:	48 89 e5             	mov    %rsp,%rbp
  401691:	48 89 7d e8          	mov    %rdi,-0x18(%rbp)
  401695:	48 8b 45 e8          	mov    -0x18(%rbp),%rax
  401699:	48 89 45 f0          	mov    %rax,-0x10(%rbp)
  40169d:	c7 45 fc 00 00 00 00 	movl   $0x0,-0x4(%rbp)
  4016a4:	eb 09                	jmp    4016af <string_length+0x22>
  4016a6:	48 83 45 f0 01       	addq   $0x1,-0x10(%rbp)
  4016ab:	83 45 fc 01          	addl   $0x1,-0x4(%rbp)
  4016af:	48 8b 45 f0          	mov    -0x10(%rbp),%rax
  4016b3:	0f b6 00             	movzbl (%rax),%eax
  4016b6:	84 c0                	test   %al,%al
  4016b8:	75 ec                	jne    4016a6 <string_length+0x19>
  4016ba:	8b 45 fc             	mov    -0x4(%rbp),%eax
  4016bd:	5d                   	pop    %rbp
  4016be:	c3                   	retq   

00000000004016bf <strings_not_equal>:
  4016bf:	55                   	push   %rbp
  4016c0:	48 89 e5             	mov    %rsp,%rbp
  4016c3:	53                   	push   %rbx
  4016c4:	48 83 ec 20          	sub    $0x20,%rsp
  4016c8:	48 89 7d e0          	mov    %rdi,-0x20(%rbp)
  4016cc:	48 89 75 d8          	mov    %rsi,-0x28(%rbp)
  4016d0:	48 8b 45 e0          	mov    -0x20(%rbp),%rax
  4016d4:	48 89 c7             	mov    %rax,%rdi
  4016d7:	e8 b1 ff ff ff       	callq  40168d <string_length>
  4016dc:	89 c3                	mov    %eax,%ebx
  4016de:	48 8b 45 d8          	mov    -0x28(%rbp),%rax
  4016e2:	48 89 c7             	mov    %rax,%rdi
  4016e5:	e8 a3 ff ff ff       	callq  40168d <string_length>
  4016ea:	39 c3                	cmp    %eax,%ebx
  4016ec:	74 07                	je     4016f5 <strings_not_equal+0x36>
  4016ee:	b8 01 00 00 00       	mov    $0x1,%eax
  4016f3:	eb 45                	jmp    40173a <strings_not_equal+0x7b>
  4016f5:	48 8b 45 e0          	mov    -0x20(%rbp),%rax
  4016f9:	48 89 45 f0          	mov    %rax,-0x10(%rbp)
  4016fd:	48 8b 45 d8          	mov    -0x28(%rbp),%rax
  401701:	48 89 45 e8          	mov    %rax,-0x18(%rbp)
  401705:	eb 23                	jmp    40172a <strings_not_equal+0x6b>
  401707:	48 8b 45 f0          	mov    -0x10(%rbp),%rax
  40170b:	0f b6 10             	movzbl (%rax),%edx
  40170e:	48 8b 45 e8          	mov    -0x18(%rbp),%rax
  401712:	0f b6 00             	movzbl (%rax),%eax
  401715:	38 c2                	cmp    %al,%dl
  401717:	74 07                	je     401720 <strings_not_equal+0x61>
  401719:	b8 01 00 00 00       	mov    $0x1,%eax
  40171e:	eb 1a                	jmp    40173a <strings_not_equal+0x7b>
  401720:	48 83 45 f0 01       	addq   $0x1,-0x10(%rbp)
  401725:	48 83 45 e8 01       	addq   $0x1,-0x18(%rbp)
  40172a:	48 8b 45 f0          	mov    -0x10(%rbp),%rax
  40172e:	0f b6 00             	movzbl (%rax),%eax
  401731:	84 c0                	test   %al,%al
  401733:	75 d2                	jne    401707 <strings_not_equal+0x48>
  401735:	b8 00 00 00 00       	mov    $0x0,%eax
  40173a:	48 83 c4 20          	add    $0x20,%rsp
  40173e:	5b                   	pop    %rbx
  40173f:	5d                   	pop    %rbp
  401740:	c3                   	retq   

0000000000401741 <open_clientfd>:
  401741:	55                   	push   %rbp
  401742:	48 89 e5             	mov    %rsp,%rbp
  401745:	48 83 ec 30          	sub    $0x30,%rsp
  401749:	48 89 7d d8          	mov    %rdi,-0x28(%rbp)
  40174d:	89 75 d4             	mov    %esi,-0x2c(%rbp)
  401750:	ba 00 00 00 00       	mov    $0x0,%edx
  401755:	be 01 00 00 00       	mov    $0x1,%esi
  40175a:	bf 02 00 00 00       	mov    $0x2,%edi
  40175f:	e8 fc f6 ff ff       	callq  400e60 <socket@plt>
  401764:	89 45 fc             	mov    %eax,-0x4(%rbp)
  401767:	83 7d fc 00          	cmpl   $0x0,-0x4(%rbp)
  40176b:	79 16                	jns    401783 <open_clientfd+0x42>
  40176d:	48 8d 3d 47 0d 00 00 	lea    0xd47(%rip),%rdi        # 4024bb <_IO_stdin_used+0x25b>
  401774:	e8 f7 f4 ff ff       	callq  400c70 <puts@plt>
  401779:	bf 08 00 00 00       	mov    $0x8,%edi
  40177e:	e8 8d f6 ff ff       	callq  400e10 <exit@plt>
  401783:	48 8b 45 d8          	mov    -0x28(%rbp),%rax
  401787:	48 89 c7             	mov    %rax,%rdi
  40178a:	e8 c1 f5 ff ff       	callq  400d50 <gethostbyname@plt>
  40178f:	48 89 45 f0          	mov    %rax,-0x10(%rbp)
  401793:	48 83 7d f0 00       	cmpq   $0x0,-0x10(%rbp)
  401798:	75 16                	jne    4017b0 <open_clientfd+0x6f>
  40179a:	48 8d 3d 28 0d 00 00 	lea    0xd28(%rip),%rdi        # 4024c9 <_IO_stdin_used+0x269>
  4017a1:	e8 ca f4 ff ff       	callq  400c70 <puts@plt>
  4017a6:	bf 08 00 00 00       	mov    $0x8,%edi
  4017ab:	e8 60 f6 ff ff       	callq  400e10 <exit@plt>
  4017b0:	48 8d 45 e0          	lea    -0x20(%rbp),%rax
  4017b4:	be 10 00 00 00       	mov    $0x10,%esi
  4017b9:	48 89 c7             	mov    %rax,%rdi
  4017bc:	e8 0f f6 ff ff       	callq  400dd0 <bzero@plt>
  4017c1:	66 c7 45 e0 02 00    	movw   $0x2,-0x20(%rbp)
  4017c7:	48 8b 45 f0          	mov    -0x10(%rbp),%rax
  4017cb:	8b 40 14             	mov    0x14(%rax),%eax
  4017ce:	48 63 d0             	movslq %eax,%rdx
  4017d1:	48 8b 45 f0          	mov    -0x10(%rbp),%rax
  4017d5:	48 8b 40 18          	mov    0x18(%rax),%rax
  4017d9:	48 8b 00             	mov    (%rax),%rax
  4017dc:	48 8d 4d e0          	lea    -0x20(%rbp),%rcx
  4017e0:	48 83 c1 04          	add    $0x4,%rcx
  4017e4:	48 89 ce             	mov    %rcx,%rsi
  4017e7:	48 89 c7             	mov    %rax,%rdi
  4017ea:	e8 b1 f5 ff ff       	callq  400da0 <bcopy@plt>
  4017ef:	8b 45 d4             	mov    -0x2c(%rbp),%eax
  4017f2:	0f b7 c0             	movzwl %ax,%eax
  4017f5:	89 c7                	mov    %eax,%edi
  4017f7:	e8 c4 f4 ff ff       	callq  400cc0 <htons@plt>
  4017fc:	66 89 45 e2          	mov    %ax,-0x1e(%rbp)
  401800:	48 8d 4d e0          	lea    -0x20(%rbp),%rcx
  401804:	8b 45 fc             	mov    -0x4(%rbp),%eax
  401807:	ba 10 00 00 00       	mov    $0x10,%edx
  40180c:	48 89 ce             	mov    %rcx,%rsi
  40180f:	89 c7                	mov    %eax,%edi
  401811:	e8 0a f6 ff ff       	callq  400e20 <connect@plt>
  401816:	85 c0                	test   %eax,%eax
  401818:	79 16                	jns    401830 <open_clientfd+0xef>
  40181a:	48 8d 3d b6 0c 00 00 	lea    0xcb6(%rip),%rdi        # 4024d7 <_IO_stdin_used+0x277>
  401821:	e8 4a f4 ff ff       	callq  400c70 <puts@plt>
  401826:	bf 08 00 00 00       	mov    $0x8,%edi
  40182b:	e8 e0 f5 ff ff       	callq  400e10 <exit@plt>
  401830:	8b 45 fc             	mov    -0x4(%rbp),%eax
  401833:	c9                   	leaveq 
  401834:	c3                   	retq   

0000000000401835 <initialize_bomb>:
  401835:	55                   	push   %rbp
  401836:	48 89 e5             	mov    %rsp,%rbp
  401839:	48 8d 35 53 fd ff ff 	lea    -0x2ad(%rip),%rsi        # 401593 <sig_handler>
  401840:	bf 02 00 00 00       	mov    $0x2,%edi
  401845:	e8 f6 f4 ff ff       	callq  400d40 <signal@plt>
  40184a:	be 50 00 00 00       	mov    $0x50,%esi
  40184f:	48 8d 3d 8f 0c 00 00 	lea    0xc8f(%rip),%rdi        # 4024e5 <_IO_stdin_used+0x285>
  401856:	e8 e6 fe ff ff       	callq  401741 <open_clientfd>
  40185b:	89 c7                	mov    %eax,%edi
  40185d:	e8 9e f4 ff ff       	callq  400d00 <close@plt>
  401862:	90                   	nop
  401863:	5d                   	pop    %rbp
  401864:	c3                   	retq   

0000000000401865 <blank_line>:
  401865:	55                   	push   %rbp
  401866:	48 89 e5             	mov    %rsp,%rbp
  401869:	48 83 ec 10          	sub    $0x10,%rsp
  40186d:	48 89 7d f8          	mov    %rdi,-0x8(%rbp)
  401871:	eb 37                	jmp    4018aa <blank_line+0x45>
  401873:	e8 d8 f5 ff ff       	callq  400e50 <__ctype_b_loc@plt>
  401878:	48 8b 08             	mov    (%rax),%rcx
  40187b:	48 8b 45 f8          	mov    -0x8(%rbp),%rax
  40187f:	48 8d 50 01          	lea    0x1(%rax),%rdx
  401883:	48 89 55 f8          	mov    %rdx,-0x8(%rbp)
  401887:	0f b6 00             	movzbl (%rax),%eax
  40188a:	48 0f be c0          	movsbq %al,%rax
  40188e:	48 01 c0             	add    %rax,%rax
  401891:	48 01 c8             	add    %rcx,%rax
  401894:	0f b7 00             	movzwl (%rax),%eax
  401897:	0f b7 c0             	movzwl %ax,%eax
  40189a:	25 00 20 00 00       	and    $0x2000,%eax
  40189f:	85 c0                	test   %eax,%eax
  4018a1:	75 07                	jne    4018aa <blank_line+0x45>
  4018a3:	b8 00 00 00 00       	mov    $0x0,%eax
  4018a8:	eb 10                	jmp    4018ba <blank_line+0x55>
  4018aa:	48 8b 45 f8          	mov    -0x8(%rbp),%rax
  4018ae:	0f b6 00             	movzbl (%rax),%eax
  4018b1:	84 c0                	test   %al,%al
  4018b3:	75 be                	jne    401873 <blank_line+0xe>
  4018b5:	b8 01 00 00 00       	mov    $0x1,%eax
  4018ba:	c9                   	leaveq 
  4018bb:	c3                   	retq   

00000000004018bc <skip>:
  4018bc:	55                   	push   %rbp
  4018bd:	48 89 e5             	mov    %rsp,%rbp
  4018c0:	48 83 ec 10          	sub    $0x10,%rsp
  4018c4:	48 8b 0d 55 1f 20 00 	mov    0x201f55(%rip),%rcx        # 603820 <infile>
  4018cb:	8b 05 4b 1f 20 00    	mov    0x201f4b(%rip),%eax        # 60381c <num_input_strings>
  4018d1:	48 63 d0             	movslq %eax,%rdx
  4018d4:	48 89 d0             	mov    %rdx,%rax
  4018d7:	48 c1 e0 02          	shl    $0x2,%rax
  4018db:	48 01 d0             	add    %rdx,%rax
  4018de:	48 c1 e0 04          	shl    $0x4,%rax
  4018e2:	48 8d 15 57 1f 20 00 	lea    0x201f57(%rip),%rdx        # 603840 <input_strings>
  4018e9:	48 01 d0             	add    %rdx,%rax
  4018ec:	48 89 ca             	mov    %rcx,%rdx
  4018ef:	be 50 00 00 00       	mov    $0x50,%esi
  4018f4:	48 89 c7             	mov    %rax,%rdi
  4018f7:	e8 24 f4 ff ff       	callq  400d20 <fgets@plt>
  4018fc:	48 89 45 f8          	mov    %rax,-0x8(%rbp)
  401900:	48 83 7d f8 00       	cmpq   $0x0,-0x8(%rbp)
  401905:	74 10                	je     401917 <skip+0x5b>
  401907:	48 8b 45 f8          	mov    -0x8(%rbp),%rax
  40190b:	48 89 c7             	mov    %rax,%rdi
  40190e:	e8 52 ff ff ff       	callq  401865 <blank_line>
  401913:	85 c0                	test   %eax,%eax
  401915:	75 ad                	jne    4018c4 <skip+0x8>
  401917:	48 8b 45 f8          	mov    -0x8(%rbp),%rax
  40191b:	c9                   	leaveq 
  40191c:	c3                   	retq   

000000000040191d <read_line>:
  40191d:	55                   	push   %rbp
  40191e:	48 89 e5             	mov    %rsp,%rbp
  401921:	48 83 ec 10          	sub    $0x10,%rsp
  401925:	b8 00 00 00 00       	mov    $0x0,%eax
  40192a:	e8 8d ff ff ff       	callq  4018bc <skip>
  40192f:	48 89 45 f8          	mov    %rax,-0x8(%rbp)
  401933:	48 83 7d f8 00       	cmpq   $0x0,-0x8(%rbp)
  401938:	75 75                	jne    4019af <read_line+0x92>
  40193a:	48 8b 15 df 1e 20 00 	mov    0x201edf(%rip),%rdx        # 603820 <infile>
  401941:	48 8b 05 c8 1e 20 00 	mov    0x201ec8(%rip),%rax        # 603810 <stdin@@GLIBC_2.2.5>
  401948:	48 39 c2             	cmp    %rax,%rdx
  40194b:	75 13                	jne    401960 <read_line+0x43>
  40194d:	48 8d 3d 9f 0b 00 00 	lea    0xb9f(%rip),%rdi        # 4024f3 <_IO_stdin_used+0x293>
  401954:	e8 17 f3 ff ff       	callq  400c70 <puts@plt>
  401959:	e8 9a 07 00 00       	callq  4020f8 <explode_bomb>
  40195e:	eb 4f                	jmp    4019af <read_line+0x92>
  401960:	48 8d 3d aa 0b 00 00 	lea    0xbaa(%rip),%rdi        # 402511 <_IO_stdin_used+0x2b1>
  401967:	e8 d4 f2 ff ff       	callq  400c40 <getenv@plt>
  40196c:	48 85 c0             	test   %rax,%rax
  40196f:	74 0a                	je     40197b <read_line+0x5e>
  401971:	bf 00 00 00 00       	mov    $0x0,%edi
  401976:	e8 95 f4 ff ff       	callq  400e10 <exit@plt>
  40197b:	48 8b 05 8e 1e 20 00 	mov    0x201e8e(%rip),%rax        # 603810 <stdin@@GLIBC_2.2.5>
  401982:	48 89 05 97 1e 20 00 	mov    %rax,0x201e97(%rip)        # 603820 <infile>
  401989:	b8 00 00 00 00       	mov    $0x0,%eax
  40198e:	e8 29 ff ff ff       	callq  4018bc <skip>
  401993:	48 89 45 f8          	mov    %rax,-0x8(%rbp)
  401997:	48 83 7d f8 00       	cmpq   $0x0,-0x8(%rbp)
  40199c:	75 11                	jne    4019af <read_line+0x92>
  40199e:	48 8d 3d 4e 0b 00 00 	lea    0xb4e(%rip),%rdi        # 4024f3 <_IO_stdin_used+0x293>
  4019a5:	e8 c6 f2 ff ff       	callq  400c70 <puts@plt>
  4019aa:	e8 49 07 00 00       	callq  4020f8 <explode_bomb>
  4019af:	8b 05 67 1e 20 00    	mov    0x201e67(%rip),%eax        # 60381c <num_input_strings>
  4019b5:	48 63 d0             	movslq %eax,%rdx
  4019b8:	48 89 d0             	mov    %rdx,%rax
  4019bb:	48 c1 e0 02          	shl    $0x2,%rax
  4019bf:	48 01 d0             	add    %rdx,%rax
  4019c2:	48 c1 e0 04          	shl    $0x4,%rax
  4019c6:	48 8d 15 73 1e 20 00 	lea    0x201e73(%rip),%rdx        # 603840 <input_strings>
  4019cd:	48 01 d0             	add    %rdx,%rax
  4019d0:	48 89 c7             	mov    %rax,%rdi
  4019d3:	e8 c8 f2 ff ff       	callq  400ca0 <strlen@plt>
  4019d8:	89 45 f4             	mov    %eax,-0xc(%rbp)
  4019db:	83 7d f4 4f          	cmpl   $0x4f,-0xc(%rbp)
  4019df:	75 11                	jne    4019f2 <read_line+0xd5>
  4019e1:	48 8d 3d 34 0b 00 00 	lea    0xb34(%rip),%rdi        # 40251c <_IO_stdin_used+0x2bc>
  4019e8:	e8 83 f2 ff ff       	callq  400c70 <puts@plt>
  4019ed:	e8 06 07 00 00       	callq  4020f8 <explode_bomb>
  4019f2:	8b 05 24 1e 20 00    	mov    0x201e24(%rip),%eax        # 60381c <num_input_strings>
  4019f8:	8b 55 f4             	mov    -0xc(%rbp),%edx
  4019fb:	83 ea 01             	sub    $0x1,%edx
  4019fe:	48 63 ca             	movslq %edx,%rcx
  401a01:	48 63 d0             	movslq %eax,%rdx
  401a04:	48 89 d0             	mov    %rdx,%rax
  401a07:	48 c1 e0 02          	shl    $0x2,%rax
  401a0b:	48 01 d0             	add    %rdx,%rax
  401a0e:	48 c1 e0 04          	shl    $0x4,%rax
  401a12:	48 8d 14 08          	lea    (%rax,%rcx,1),%rdx
  401a16:	48 8d 05 23 1e 20 00 	lea    0x201e23(%rip),%rax        # 603840 <input_strings>
  401a1d:	48 01 d0             	add    %rdx,%rax
  401a20:	c6 00 00             	movb   $0x0,(%rax)
  401a23:	8b 05 f3 1d 20 00    	mov    0x201df3(%rip),%eax        # 60381c <num_input_strings>
  401a29:	8d 50 01             	lea    0x1(%rax),%edx
  401a2c:	89 15 ea 1d 20 00    	mov    %edx,0x201dea(%rip)        # 60381c <num_input_strings>
  401a32:	48 63 d0             	movslq %eax,%rdx
  401a35:	48 89 d0             	mov    %rdx,%rax
  401a38:	48 c1 e0 02          	shl    $0x2,%rax
  401a3c:	48 01 d0             	add    %rdx,%rax
  401a3f:	48 c1 e0 04          	shl    $0x4,%rax
  401a43:	48 8d 15 f6 1d 20 00 	lea    0x201df6(%rip),%rdx        # 603840 <input_strings>
  401a4a:	48 01 d0             	add    %rdx,%rax
  401a4d:	c9                   	leaveq 
  401a4e:	c3                   	retq   

0000000000401a4f <writen>:
  401a4f:	55                   	push   %rbp
  401a50:	48 89 e5             	mov    %rsp,%rbp
  401a53:	48 83 ec 40          	sub    $0x40,%rsp
  401a57:	89 7d dc             	mov    %edi,-0x24(%rbp)
  401a5a:	48 89 75 d0          	mov    %rsi,-0x30(%rbp)
  401a5e:	48 89 55 c8          	mov    %rdx,-0x38(%rbp)
  401a62:	48 8b 45 d0          	mov    -0x30(%rbp),%rax
  401a66:	48 89 45 e8          	mov    %rax,-0x18(%rbp)
  401a6a:	48 8b 45 c8          	mov    -0x38(%rbp),%rax
  401a6e:	48 89 45 f8          	mov    %rax,-0x8(%rbp)
  401a72:	eb 4f                	jmp    401ac3 <writen+0x74>
  401a74:	48 8b 55 f8          	mov    -0x8(%rbp),%rdx
  401a78:	48 8b 4d e8          	mov    -0x18(%rbp),%rcx
  401a7c:	8b 45 dc             	mov    -0x24(%rbp),%eax
  401a7f:	48 89 ce             	mov    %rcx,%rsi
  401a82:	89 c7                	mov    %eax,%edi
  401a84:	e8 f7 f1 ff ff       	callq  400c80 <write@plt>
  401a89:	48 89 45 f0          	mov    %rax,-0x10(%rbp)
  401a8d:	48 83 7d f0 00       	cmpq   $0x0,-0x10(%rbp)
  401a92:	7f 1f                	jg     401ab3 <writen+0x64>
  401a94:	e8 b7 f1 ff ff       	callq  400c50 <__errno_location@plt>
  401a99:	8b 00                	mov    (%rax),%eax
  401a9b:	83 f8 04             	cmp    $0x4,%eax
  401a9e:	75 0a                	jne    401aaa <writen+0x5b>
  401aa0:	48 c7 45 f0 00 00 00 	movq   $0x0,-0x10(%rbp)
  401aa7:	00 
  401aa8:	eb 09                	jmp    401ab3 <writen+0x64>
  401aaa:	48 c7 c0 ff ff ff ff 	mov    $0xffffffffffffffff,%rax
  401ab1:	eb 1b                	jmp    401ace <writen+0x7f>
  401ab3:	48 8b 45 f0          	mov    -0x10(%rbp),%rax
  401ab7:	48 29 45 f8          	sub    %rax,-0x8(%rbp)
  401abb:	48 8b 45 f0          	mov    -0x10(%rbp),%rax
  401abf:	48 01 45 e8          	add    %rax,-0x18(%rbp)
  401ac3:	48 83 7d f8 00       	cmpq   $0x0,-0x8(%rbp)
  401ac8:	75 aa                	jne    401a74 <writen+0x25>
  401aca:	48 8b 45 c8          	mov    -0x38(%rbp),%rax
  401ace:	c9                   	leaveq 
  401acf:	c3                   	retq   

0000000000401ad0 <send_msg>:
  401ad0:	55                   	push   %rbp
  401ad1:	48 89 e5             	mov    %rsp,%rbp
  401ad4:	53                   	push   %rbx
  401ad5:	48 81 ec 88 24 00 00 	sub    $0x2488,%rsp
  401adc:	89 bd 7c db ff ff    	mov    %edi,-0x2484(%rbp)
  401ae2:	c7 45 e8 00 00 00 00 	movl   $0x0,-0x18(%rbp)
  401ae9:	ba 00 00 00 00       	mov    $0x0,%edx
  401aee:	be 01 00 00 00       	mov    $0x1,%esi
  401af3:	bf 02 00 00 00       	mov    $0x2,%edi
  401af8:	e8 63 f3 ff ff       	callq  400e60 <socket@plt>
  401afd:	89 45 e8             	mov    %eax,-0x18(%rbp)
  401b00:	83 7d e8 00          	cmpl   $0x0,-0x18(%rbp)
  401b04:	79 3c                	jns    401b42 <send_msg+0x72>
  401b06:	48 8b 05 f3 1c 20 00 	mov    0x201cf3(%rip),%rax        # 603800 <stdout@@GLIBC_2.2.5>
  401b0d:	48 8d 15 23 0a 00 00 	lea    0xa23(%rip),%rdx        # 402537 <_IO_stdin_used+0x2d7>
  401b14:	48 8d 35 29 0a 00 00 	lea    0xa29(%rip),%rsi        # 402544 <_IO_stdin_used+0x2e4>
  401b1b:	48 89 c7             	mov    %rax,%rdi
  401b1e:	b8 00 00 00 00       	mov    $0x0,%eax
  401b23:	e8 38 f2 ff ff       	callq  400d60 <fprintf@plt>
  401b28:	83 7d e8 00          	cmpl   $0x0,-0x18(%rbp)
  401b2c:	74 0a                	je     401b38 <send_msg+0x68>
  401b2e:	8b 45 e8             	mov    -0x18(%rbp),%eax
  401b31:	89 c7                	mov    %eax,%edi
  401b33:	e8 c8 f1 ff ff       	callq  400d00 <close@plt>
  401b38:	bf 01 00 00 00       	mov    $0x1,%edi
  401b3d:	e8 ce f2 ff ff       	callq  400e10 <exit@plt>
  401b42:	48 8d 45 d0          	lea    -0x30(%rbp),%rax
  401b46:	be 10 00 00 00       	mov    $0x10,%esi
  401b4b:	48 89 c7             	mov    %rax,%rdi
  401b4e:	e8 7d f2 ff ff       	callq  400dd0 <bzero@plt>
  401b53:	66 c7 45 d0 02 00    	movw   $0x2,-0x30(%rbp)
  401b59:	bf 7a c8 00 00       	mov    $0xc87a,%edi
  401b5e:	e8 5d f1 ff ff       	callq  400cc0 <htons@plt>
  401b63:	66 89 45 d2          	mov    %ax,-0x2e(%rbp)
  401b67:	48 8d 45 d0          	lea    -0x30(%rbp),%rax
  401b6b:	48 83 c0 04          	add    $0x4,%rax
  401b6f:	48 89 c2             	mov    %rax,%rdx
  401b72:	48 8d 35 6c 09 00 00 	lea    0x96c(%rip),%rsi        # 4024e5 <_IO_stdin_used+0x285>
  401b79:	bf 02 00 00 00       	mov    $0x2,%edi
  401b7e:	b8 00 00 00 00       	mov    $0x0,%eax
  401b83:	e8 e8 f1 ff ff       	callq  400d70 <inet_pton@plt>
  401b88:	85 c0                	test   %eax,%eax
  401b8a:	79 3c                	jns    401bc8 <send_msg+0xf8>
  401b8c:	48 8b 05 6d 1c 20 00 	mov    0x201c6d(%rip),%rax        # 603800 <stdout@@GLIBC_2.2.5>
  401b93:	48 8d 15 ae 09 00 00 	lea    0x9ae(%rip),%rdx        # 402548 <_IO_stdin_used+0x2e8>
  401b9a:	48 8d 35 a3 09 00 00 	lea    0x9a3(%rip),%rsi        # 402544 <_IO_stdin_used+0x2e4>
  401ba1:	48 89 c7             	mov    %rax,%rdi
  401ba4:	b8 00 00 00 00       	mov    $0x0,%eax
  401ba9:	e8 b2 f1 ff ff       	callq  400d60 <fprintf@plt>
  401bae:	83 7d e8 00          	cmpl   $0x0,-0x18(%rbp)
  401bb2:	74 0a                	je     401bbe <send_msg+0xee>
  401bb4:	8b 45 e8             	mov    -0x18(%rbp),%eax
  401bb7:	89 c7                	mov    %eax,%edi
  401bb9:	e8 42 f1 ff ff       	callq  400d00 <close@plt>
  401bbe:	bf 01 00 00 00       	mov    $0x1,%edi
  401bc3:	e8 48 f2 ff ff       	callq  400e10 <exit@plt>
  401bc8:	48 8d 4d d0          	lea    -0x30(%rbp),%rcx
  401bcc:	8b 45 e8             	mov    -0x18(%rbp),%eax
  401bcf:	ba 10 00 00 00       	mov    $0x10,%edx
  401bd4:	48 89 ce             	mov    %rcx,%rsi
  401bd7:	89 c7                	mov    %eax,%edi
  401bd9:	e8 42 f2 ff ff       	callq  400e20 <connect@plt>
  401bde:	85 c0                	test   %eax,%eax
  401be0:	79 3c                	jns    401c1e <send_msg+0x14e>
  401be2:	48 8b 05 17 1c 20 00 	mov    0x201c17(%rip),%rax        # 603800 <stdout@@GLIBC_2.2.5>
  401be9:	48 8d 15 5e 09 00 00 	lea    0x95e(%rip),%rdx        # 40254e <_IO_stdin_used+0x2ee>
  401bf0:	48 8d 35 4d 09 00 00 	lea    0x94d(%rip),%rsi        # 402544 <_IO_stdin_used+0x2e4>
  401bf7:	48 89 c7             	mov    %rax,%rdi
  401bfa:	b8 00 00 00 00       	mov    $0x0,%eax
  401bff:	e8 5c f1 ff ff       	callq  400d60 <fprintf@plt>
  401c04:	83 7d e8 00          	cmpl   $0x0,-0x18(%rbp)
  401c08:	74 0a                	je     401c14 <send_msg+0x144>
  401c0a:	8b 45 e8             	mov    -0x18(%rbp),%eax
  401c0d:	89 c7                	mov    %eax,%edi
  401c0f:	e8 ec f0 ff ff       	callq  400d00 <close@plt>
  401c14:	bf 01 00 00 00       	mov    $0x1,%edi
  401c19:	e8 f2 f1 ff ff       	callq  400e10 <exit@plt>
  401c1e:	48 8d 85 d0 db ff ff 	lea    -0x2430(%rbp),%rax
  401c25:	48 bb 53 75 62 6a 65 	movabs $0x3a7463656a627553,%rbx
  401c2c:	63 74 3a 
  401c2f:	48 89 18             	mov    %rbx,(%rax)
  401c32:	48 bb 20 42 6f 6d 62 	movabs $0x6f6e20626d6f4220,%rbx
  401c39:	20 6e 6f 
  401c3c:	48 89 58 08          	mov    %rbx,0x8(%rax)
  401c40:	48 bb 74 69 66 69 63 	movabs $0x6974616369666974,%rbx
  401c47:	61 74 69 
  401c4a:	48 89 58 10          	mov    %rbx,0x10(%rax)
  401c4e:	c7 40 18 6f 6e 0a 00 	movl   $0xa6e6f,0x18(%rax)
  401c55:	48 8d 95 d0 db ff ff 	lea    -0x2430(%rbp),%rdx
  401c5c:	48 8d 85 d0 df ff ff 	lea    -0x2030(%rbp),%rax
  401c63:	48 89 d6             	mov    %rdx,%rsi
  401c66:	48 89 c7             	mov    %rax,%rdi
  401c69:	e8 82 f1 ff ff       	callq  400df0 <strcat@plt>
  401c6e:	48 8d 85 d0 db ff ff 	lea    -0x2430(%rbp),%rax
  401c75:	66 c7 00 0a 00       	movw   $0xa,(%rax)
  401c7a:	48 8d 95 d0 db ff ff 	lea    -0x2430(%rbp),%rdx
  401c81:	48 8d 85 d0 df ff ff 	lea    -0x2030(%rbp),%rax
  401c88:	48 89 d6             	mov    %rdx,%rsi
  401c8b:	48 89 c7             	mov    %rax,%rdi
  401c8e:	e8 5d f1 ff ff       	callq  400df0 <strcat@plt>
  401c93:	bf 00 00 00 00       	mov    $0x0,%edi
  401c98:	e8 13 f1 ff ff       	callq  400db0 <cuserid@plt>
  401c9d:	48 89 45 e0          	mov    %rax,-0x20(%rbp)
  401ca1:	48 83 7d e0 00       	cmpq   $0x0,-0x20(%rbp)
  401ca6:	75 19                	jne    401cc1 <send_msg+0x1f1>
  401ca8:	48 8d 85 80 db ff ff 	lea    -0x2480(%rbp),%rax
  401caf:	c7 00 6e 6f 62 6f    	movl   $0x6f626f6e,(%rax)
  401cb5:	66 c7 40 04 64 79    	movw   $0x7964,0x4(%rax)
  401cbb:	c6 40 06 00          	movb   $0x0,0x6(%rax)
  401cbf:	eb 16                	jmp    401cd7 <send_msg+0x207>
  401cc1:	48 8b 55 e0          	mov    -0x20(%rbp),%rdx
  401cc5:	48 8d 85 80 db ff ff 	lea    -0x2480(%rbp),%rax
  401ccc:	48 89 d6             	mov    %rdx,%rsi
  401ccf:	48 89 c7             	mov    %rax,%rdi
  401cd2:	e8 89 ef ff ff       	callq  400c60 <strcpy@plt>
  401cd7:	8b 0d 3f 1b 20 00    	mov    0x201b3f(%rip),%ecx        # 60381c <num_input_strings>
  401cdd:	83 bd 7c db ff ff 00 	cmpl   $0x0,-0x2484(%rbp)
  401ce4:	74 09                	je     401cef <send_msg+0x21f>
  401ce6:	48 8d 05 6f 08 00 00 	lea    0x86f(%rip),%rax        # 40255c <_IO_stdin_used+0x2fc>
  401ced:	eb 07                	jmp    401cf6 <send_msg+0x226>
  401cef:	48 8d 05 6e 08 00 00 	lea    0x86e(%rip),%rax        # 402564 <_IO_stdin_used+0x304>
  401cf6:	8b 15 64 14 20 00    	mov    0x201464(%rip),%edx        # 603160 <bomb_id>
  401cfc:	48 8d b5 80 db ff ff 	lea    -0x2480(%rbp),%rsi
  401d03:	48 8d bd d0 db ff ff 	lea    -0x2430(%rbp),%rdi
  401d0a:	48 83 ec 08          	sub    $0x8,%rsp
  401d0e:	51                   	push   %rcx
  401d0f:	49 89 c1             	mov    %rax,%r9
  401d12:	49 89 f0             	mov    %rsi,%r8
  401d15:	89 d1                	mov    %edx,%ecx
  401d17:	48 8d 15 62 14 20 00 	lea    0x201462(%rip),%rdx        # 603180 <lab_id>
  401d1e:	48 8d 35 48 08 00 00 	lea    0x848(%rip),%rsi        # 40256d <_IO_stdin_used+0x30d>
  401d25:	b8 00 00 00 00       	mov    $0x0,%eax
  401d2a:	e8 d1 f0 ff ff       	callq  400e00 <sprintf@plt>
  401d2f:	48 83 c4 10          	add    $0x10,%rsp
  401d33:	48 8d 95 d0 db ff ff 	lea    -0x2430(%rbp),%rdx
  401d3a:	48 8d 85 d0 df ff ff 	lea    -0x2030(%rbp),%rax
  401d41:	48 89 d6             	mov    %rdx,%rsi
  401d44:	48 89 c7             	mov    %rax,%rdi
  401d47:	e8 a4 f0 ff ff       	callq  400df0 <strcat@plt>
  401d4c:	c7 45 ec 00 00 00 00 	movl   $0x0,-0x14(%rbp)
  401d53:	e9 82 00 00 00       	jmpq   401dda <send_msg+0x30a>
  401d58:	8b 45 ec             	mov    -0x14(%rbp),%eax
  401d5b:	48 63 d0             	movslq %eax,%rdx
  401d5e:	48 89 d0             	mov    %rdx,%rax
  401d61:	48 c1 e0 02          	shl    $0x2,%rax
  401d65:	48 01 d0             	add    %rdx,%rax
  401d68:	48 c1 e0 04          	shl    $0x4,%rax
  401d6c:	48 8d 15 cd 1a 20 00 	lea    0x201acd(%rip),%rdx        # 603840 <input_strings>
  401d73:	48 8d 34 10          	lea    (%rax,%rdx,1),%rsi
  401d77:	8b 45 ec             	mov    -0x14(%rbp),%eax
  401d7a:	8d 78 01             	lea    0x1(%rax),%edi
  401d7d:	8b 15 dd 13 20 00    	mov    0x2013dd(%rip),%edx        # 603160 <bomb_id>
  401d83:	48 8d 8d 80 db ff ff 	lea    -0x2480(%rbp),%rcx
  401d8a:	48 8d 85 d0 db ff ff 	lea    -0x2430(%rbp),%rax
  401d91:	48 83 ec 08          	sub    $0x8,%rsp
  401d95:	56                   	push   %rsi
  401d96:	41 89 f9             	mov    %edi,%r9d
  401d99:	49 89 c8             	mov    %rcx,%r8
  401d9c:	89 d1                	mov    %edx,%ecx
  401d9e:	48 8d 15 db 13 20 00 	lea    0x2013db(%rip),%rdx        # 603180 <lab_id>
  401da5:	48 8d 35 dd 07 00 00 	lea    0x7dd(%rip),%rsi        # 402589 <_IO_stdin_used+0x329>
  401dac:	48 89 c7             	mov    %rax,%rdi
  401daf:	b8 00 00 00 00       	mov    $0x0,%eax
  401db4:	e8 47 f0 ff ff       	callq  400e00 <sprintf@plt>
  401db9:	48 83 c4 10          	add    $0x10,%rsp
  401dbd:	48 8d 95 d0 db ff ff 	lea    -0x2430(%rbp),%rdx
  401dc4:	48 8d 85 d0 df ff ff 	lea    -0x2030(%rbp),%rax
  401dcb:	48 89 d6             	mov    %rdx,%rsi
  401dce:	48 89 c7             	mov    %rax,%rdi
  401dd1:	e8 1a f0 ff ff       	callq  400df0 <strcat@plt>
  401dd6:	83 45 ec 01          	addl   $0x1,-0x14(%rbp)
  401dda:	8b 05 3c 1a 20 00    	mov    0x201a3c(%rip),%eax        # 60381c <num_input_strings>
  401de0:	39 45 ec             	cmp    %eax,-0x14(%rbp)
  401de3:	0f 8c 6f ff ff ff    	jl     401d58 <send_msg+0x288>
  401de9:	48 8d 85 d0 df ff ff 	lea    -0x2030(%rbp),%rax
  401df0:	48 89 c7             	mov    %rax,%rdi
  401df3:	e8 a8 ee ff ff       	callq  400ca0 <strlen@plt>
  401df8:	48 89 c2             	mov    %rax,%rdx
  401dfb:	48 8d 8d d0 df ff ff 	lea    -0x2030(%rbp),%rcx
  401e02:	8b 45 e8             	mov    -0x18(%rbp),%eax
  401e05:	48 89 ce             	mov    %rcx,%rsi
  401e08:	89 c7                	mov    %eax,%edi
  401e0a:	e8 40 fc ff ff       	callq  401a4f <writen>
  401e0f:	48 89 c3             	mov    %rax,%rbx
  401e12:	48 8d 85 d0 df ff ff 	lea    -0x2030(%rbp),%rax
  401e19:	48 89 c7             	mov    %rax,%rdi
  401e1c:	e8 7f ee ff ff       	callq  400ca0 <strlen@plt>
  401e21:	48 39 c3             	cmp    %rax,%rbx
  401e24:	73 3c                	jae    401e62 <send_msg+0x392>
  401e26:	48 8b 05 d3 19 20 00 	mov    0x2019d3(%rip),%rax        # 603800 <stdout@@GLIBC_2.2.5>
  401e2d:	48 8d 15 71 07 00 00 	lea    0x771(%rip),%rdx        # 4025a5 <_IO_stdin_used+0x345>
  401e34:	48 8d 35 09 07 00 00 	lea    0x709(%rip),%rsi        # 402544 <_IO_stdin_used+0x2e4>
  401e3b:	48 89 c7             	mov    %rax,%rdi
  401e3e:	b8 00 00 00 00       	mov    $0x0,%eax
  401e43:	e8 18 ef ff ff       	callq  400d60 <fprintf@plt>
  401e48:	83 7d e8 00          	cmpl   $0x0,-0x18(%rbp)
  401e4c:	74 0a                	je     401e58 <send_msg+0x388>
  401e4e:	8b 45 e8             	mov    -0x18(%rbp),%eax
  401e51:	89 c7                	mov    %eax,%edi
  401e53:	e8 a8 ee ff ff       	callq  400d00 <close@plt>
  401e58:	bf 01 00 00 00       	mov    $0x1,%edi
  401e5d:	e8 ae ef ff ff       	callq  400e10 <exit@plt>
  401e62:	8b 45 e8             	mov    -0x18(%rbp),%eax
  401e65:	89 c7                	mov    %eax,%edi
  401e67:	e8 94 ee ff ff       	callq  400d00 <close@plt>
  401e6c:	90                   	nop
  401e6d:	48 8b 5d f8          	mov    -0x8(%rbp),%rbx
  401e71:	c9                   	leaveq 
  401e72:	c3                   	retq   

0000000000401e73 <send_msg_2>:
  401e73:	55                   	push   %rbp
  401e74:	48 89 e5             	mov    %rsp,%rbp
  401e77:	48 83 c4 80          	add    $0xffffffffffffff80,%rsp
  401e7b:	89 7d 8c             	mov    %edi,-0x74(%rbp)
  401e7e:	bf 00 00 00 00       	mov    $0x0,%edi
  401e83:	e8 68 ee ff ff       	callq  400cf0 <dup@plt>
  401e88:	89 45 f8             	mov    %eax,-0x8(%rbp)
  401e8b:	83 7d f8 ff          	cmpl   $0xffffffff,-0x8(%rbp)
  401e8f:	75 16                	jne    401ea7 <send_msg_2+0x34>
  401e91:	48 8d 3d 20 07 00 00 	lea    0x720(%rip),%rdi        # 4025b8 <_IO_stdin_used+0x358>
  401e98:	e8 d3 ed ff ff       	callq  400c70 <puts@plt>
  401e9d:	bf 08 00 00 00       	mov    $0x8,%edi
  401ea2:	e8 69 ef ff ff       	callq  400e10 <exit@plt>
  401ea7:	bf 00 00 00 00       	mov    $0x0,%edi
  401eac:	e8 4f ee ff ff       	callq  400d00 <close@plt>
  401eb1:	83 f8 ff             	cmp    $0xffffffff,%eax
  401eb4:	75 16                	jne    401ecc <send_msg_2+0x59>
  401eb6:	48 8d 3d 0f 07 00 00 	lea    0x70f(%rip),%rdi        # 4025cc <_IO_stdin_used+0x36c>
  401ebd:	e8 ae ed ff ff       	callq  400c70 <puts@plt>
  401ec2:	bf 08 00 00 00       	mov    $0x8,%edi
  401ec7:	e8 44 ef ff ff       	callq  400e10 <exit@plt>
  401ecc:	e8 5f ee ff ff       	callq  400d30 <tmpfile@plt>
  401ed1:	48 89 45 f0          	mov    %rax,-0x10(%rbp)
  401ed5:	48 83 7d f0 00       	cmpq   $0x0,-0x10(%rbp)
  401eda:	75 16                	jne    401ef2 <send_msg_2+0x7f>
  401edc:	48 8d 3d fc 06 00 00 	lea    0x6fc(%rip),%rdi        # 4025df <_IO_stdin_used+0x37f>
  401ee3:	e8 88 ed ff ff       	callq  400c70 <puts@plt>
  401ee8:	bf 08 00 00 00       	mov    $0x8,%edi
  401eed:	e8 1e ef ff ff       	callq  400e10 <exit@plt>
  401ef2:	48 8b 45 f0          	mov    -0x10(%rbp),%rax
  401ef6:	48 89 c1             	mov    %rax,%rcx
  401ef9:	ba 1b 00 00 00       	mov    $0x1b,%edx
  401efe:	be 01 00 00 00       	mov    $0x1,%esi
  401f03:	48 8d 3d ea 06 00 00 	lea    0x6ea(%rip),%rdi        # 4025f4 <_IO_stdin_used+0x394>
  401f0a:	e8 21 ef ff ff       	callq  400e30 <fwrite@plt>
  401f0f:	48 8b 45 f0          	mov    -0x10(%rbp),%rax
  401f13:	48 89 c6             	mov    %rax,%rsi
  401f16:	bf 0a 00 00 00       	mov    $0xa,%edi
  401f1b:	e8 f0 ed ff ff       	callq  400d10 <fputc@plt>
  401f20:	bf 00 00 00 00       	mov    $0x0,%edi
  401f25:	e8 86 ee ff ff       	callq  400db0 <cuserid@plt>
  401f2a:	48 89 45 e8          	mov    %rax,-0x18(%rbp)
  401f2e:	48 83 7d e8 00       	cmpq   $0x0,-0x18(%rbp)
  401f33:	75 16                	jne    401f4b <send_msg_2+0xd8>
  401f35:	48 8d 45 90          	lea    -0x70(%rbp),%rax
  401f39:	c7 00 6e 6f 62 6f    	movl   $0x6f626f6e,(%rax)
  401f3f:	66 c7 40 04 64 79    	movw   $0x7964,0x4(%rax)
  401f45:	c6 40 06 00          	movb   $0x0,0x6(%rax)
  401f49:	eb 13                	jmp    401f5e <send_msg_2+0xeb>
  401f4b:	48 8b 55 e8          	mov    -0x18(%rbp),%rdx
  401f4f:	48 8d 45 90          	lea    -0x70(%rbp),%rax
  401f53:	48 89 d6             	mov    %rdx,%rsi
  401f56:	48 89 c7             	mov    %rax,%rdi
  401f59:	e8 02 ed ff ff       	callq  400c60 <strcpy@plt>
  401f5e:	8b 0d b8 18 20 00    	mov    0x2018b8(%rip),%ecx        # 60381c <num_input_strings>
  401f64:	83 7d 8c 00          	cmpl   $0x0,-0x74(%rbp)
  401f68:	74 09                	je     401f73 <send_msg_2+0x100>
  401f6a:	48 8d 05 eb 05 00 00 	lea    0x5eb(%rip),%rax        # 40255c <_IO_stdin_used+0x2fc>
  401f71:	eb 07                	jmp    401f7a <send_msg_2+0x107>
  401f73:	48 8d 05 ea 05 00 00 	lea    0x5ea(%rip),%rax        # 402564 <_IO_stdin_used+0x304>
  401f7a:	8b 15 e0 11 20 00    	mov    0x2011e0(%rip),%edx        # 603160 <bomb_id>
  401f80:	48 8d 75 90          	lea    -0x70(%rbp),%rsi
  401f84:	48 8b 7d f0          	mov    -0x10(%rbp),%rdi
  401f88:	48 83 ec 08          	sub    $0x8,%rsp
  401f8c:	51                   	push   %rcx
  401f8d:	49 89 c1             	mov    %rax,%r9
  401f90:	49 89 f0             	mov    %rsi,%r8
  401f93:	89 d1                	mov    %edx,%ecx
  401f95:	48 8d 15 e4 11 20 00 	lea    0x2011e4(%rip),%rdx        # 603180 <lab_id>
  401f9c:	48 8d 35 ca 05 00 00 	lea    0x5ca(%rip),%rsi        # 40256d <_IO_stdin_used+0x30d>
  401fa3:	b8 00 00 00 00       	mov    $0x0,%eax
  401fa8:	e8 b3 ed ff ff       	callq  400d60 <fprintf@plt>
  401fad:	48 83 c4 10          	add    $0x10,%rsp
  401fb1:	c7 45 fc 00 00 00 00 	movl   $0x0,-0x4(%rbp)
  401fb8:	eb 63                	jmp    40201d <send_msg_2+0x1aa>
  401fba:	8b 45 fc             	mov    -0x4(%rbp),%eax
  401fbd:	48 63 d0             	movslq %eax,%rdx
  401fc0:	48 89 d0             	mov    %rdx,%rax
  401fc3:	48 c1 e0 02          	shl    $0x2,%rax
  401fc7:	48 01 d0             	add    %rdx,%rax
  401fca:	48 c1 e0 04          	shl    $0x4,%rax
  401fce:	48 8d 15 6b 18 20 00 	lea    0x20186b(%rip),%rdx        # 603840 <input_strings>
  401fd5:	48 8d 34 10          	lea    (%rax,%rdx,1),%rsi
  401fd9:	8b 45 fc             	mov    -0x4(%rbp),%eax
  401fdc:	8d 78 01             	lea    0x1(%rax),%edi
  401fdf:	8b 15 7b 11 20 00    	mov    0x20117b(%rip),%edx        # 603160 <bomb_id>
  401fe5:	48 8d 4d 90          	lea    -0x70(%rbp),%rcx
  401fe9:	48 8b 45 f0          	mov    -0x10(%rbp),%rax
  401fed:	48 83 ec 08          	sub    $0x8,%rsp
  401ff1:	56                   	push   %rsi
  401ff2:	41 89 f9             	mov    %edi,%r9d
  401ff5:	49 89 c8             	mov    %rcx,%r8
  401ff8:	89 d1                	mov    %edx,%ecx
  401ffa:	48 8d 15 7f 11 20 00 	lea    0x20117f(%rip),%rdx        # 603180 <lab_id>
  402001:	48 8d 35 81 05 00 00 	lea    0x581(%rip),%rsi        # 402589 <_IO_stdin_used+0x329>
  402008:	48 89 c7             	mov    %rax,%rdi
  40200b:	b8 00 00 00 00       	mov    $0x0,%eax
  402010:	e8 4b ed ff ff       	callq  400d60 <fprintf@plt>
  402015:	48 83 c4 10          	add    $0x10,%rsp
  402019:	83 45 fc 01          	addl   $0x1,-0x4(%rbp)
  40201d:	8b 05 f9 17 20 00    	mov    0x2017f9(%rip),%eax        # 60381c <num_input_strings>
  402023:	39 45 fc             	cmp    %eax,-0x4(%rbp)
  402026:	7c 92                	jl     401fba <send_msg_2+0x147>
  402028:	48 8b 45 f0          	mov    -0x10(%rbp),%rax
  40202c:	48 89 c7             	mov    %rax,%rdi
  40202f:	e8 ac ec ff ff       	callq  400ce0 <rewind@plt>
  402034:	4c 8d 05 d5 05 00 00 	lea    0x5d5(%rip),%r8        # 402610 <_IO_stdin_used+0x3b0>
  40203b:	48 8d 0d d8 05 00 00 	lea    0x5d8(%rip),%rcx        # 40261a <_IO_stdin_used+0x3ba>
  402042:	48 8d 15 d9 05 00 00 	lea    0x5d9(%rip),%rdx        # 402622 <_IO_stdin_used+0x3c2>
  402049:	48 8d 35 e9 05 00 00 	lea    0x5e9(%rip),%rsi        # 402639 <_IO_stdin_used+0x3d9>
  402050:	48 8d 3d 29 1e 20 00 	lea    0x201e29(%rip),%rdi        # 603e80 <scratch>
  402057:	b8 00 00 00 00       	mov    $0x0,%eax
  40205c:	e8 9f ed ff ff       	callq  400e00 <sprintf@plt>
  402061:	48 8d 3d 18 1e 20 00 	lea    0x201e18(%rip),%rdi        # 603e80 <scratch>
  402068:	e8 43 ec ff ff       	callq  400cb0 <system@plt>
  40206d:	85 c0                	test   %eax,%eax
  40206f:	74 16                	je     402087 <send_msg_2+0x214>
  402071:	48 8d 3d ca 05 00 00 	lea    0x5ca(%rip),%rdi        # 402642 <_IO_stdin_used+0x3e2>
  402078:	e8 f3 eb ff ff       	callq  400c70 <puts@plt>
  40207d:	bf 08 00 00 00       	mov    $0x8,%edi
  402082:	e8 89 ed ff ff       	callq  400e10 <exit@plt>
  402087:	48 8b 45 f0          	mov    -0x10(%rbp),%rax
  40208b:	48 89 c7             	mov    %rax,%rdi
  40208e:	e8 fd eb ff ff       	callq  400c90 <fclose@plt>
  402093:	85 c0                	test   %eax,%eax
  402095:	74 16                	je     4020ad <send_msg_2+0x23a>
  402097:	48 8d 3d be 05 00 00 	lea    0x5be(%rip),%rdi        # 40265c <_IO_stdin_used+0x3fc>
  40209e:	e8 cd eb ff ff       	callq  400c70 <puts@plt>
  4020a3:	bf 08 00 00 00       	mov    $0x8,%edi
  4020a8:	e8 63 ed ff ff       	callq  400e10 <exit@plt>
  4020ad:	8b 45 f8             	mov    -0x8(%rbp),%eax
  4020b0:	89 c7                	mov    %eax,%edi
  4020b2:	e8 39 ec ff ff       	callq  400cf0 <dup@plt>
  4020b7:	85 c0                	test   %eax,%eax
  4020b9:	74 16                	je     4020d1 <send_msg_2+0x25e>
  4020bb:	48 8d 3d b3 05 00 00 	lea    0x5b3(%rip),%rdi        # 402675 <_IO_stdin_used+0x415>
  4020c2:	e8 a9 eb ff ff       	callq  400c70 <puts@plt>
  4020c7:	bf 08 00 00 00       	mov    $0x8,%edi
  4020cc:	e8 3f ed ff ff       	callq  400e10 <exit@plt>
  4020d1:	8b 45 f8             	mov    -0x8(%rbp),%eax
  4020d4:	89 c7                	mov    %eax,%edi
  4020d6:	e8 25 ec ff ff       	callq  400d00 <close@plt>
  4020db:	85 c0                	test   %eax,%eax
  4020dd:	74 16                	je     4020f5 <send_msg_2+0x282>
  4020df:	48 8d 3d aa 05 00 00 	lea    0x5aa(%rip),%rdi        # 402690 <_IO_stdin_used+0x430>
  4020e6:	e8 85 eb ff ff       	callq  400c70 <puts@plt>
  4020eb:	bf 08 00 00 00       	mov    $0x8,%edi
  4020f0:	e8 1b ed ff ff       	callq  400e10 <exit@plt>
  4020f5:	90                   	nop
  4020f6:	c9                   	leaveq 
  4020f7:	c3                   	retq   

00000000004020f8 <explode_bomb>:
  4020f8:	55                   	push   %rbp
  4020f9:	48 89 e5             	mov    %rsp,%rbp
  4020fc:	48 8d 3d a4 05 00 00 	lea    0x5a4(%rip),%rdi        # 4026a7 <_IO_stdin_used+0x447>
  402103:	e8 68 eb ff ff       	callq  400c70 <puts@plt>
  402108:	48 8d 3d a1 05 00 00 	lea    0x5a1(%rip),%rdi        # 4026b0 <_IO_stdin_used+0x450>
  40210f:	e8 5c eb ff ff       	callq  400c70 <puts@plt>
  402114:	bf 00 00 00 00       	mov    $0x0,%edi
  402119:	e8 b2 f9 ff ff       	callq  401ad0 <send_msg>
  40211e:	48 8d 3d a3 05 00 00 	lea    0x5a3(%rip),%rdi        # 4026c8 <_IO_stdin_used+0x468>
  402125:	e8 46 eb ff ff       	callq  400c70 <puts@plt>
  40212a:	bf 08 00 00 00       	mov    $0x8,%edi
  40212f:	e8 dc ec ff ff       	callq  400e10 <exit@plt>

0000000000402134 <phase_defused>:
  402134:	55                   	push   %rbp
  402135:	48 89 e5             	mov    %rsp,%rbp
  402138:	48 83 ec 70          	sub    $0x70,%rsp
  40213c:	bf 01 00 00 00       	mov    $0x1,%edi
  402141:	e8 8a f9 ff ff       	callq  401ad0 <send_msg>
  402146:	8b 05 d0 16 20 00    	mov    0x2016d0(%rip),%eax        # 60381c <num_input_strings>
  40214c:	83 f8 06             	cmp    $0x6,%eax
  40214f:	0f 85 80 00 00 00    	jne    4021d5 <phase_defused+0xa1>
  402155:	48 8d 55 a0          	lea    -0x60(%rbp),%rdx
  402159:	48 8d 45 9c          	lea    -0x64(%rbp),%rax
  40215d:	48 89 d1             	mov    %rdx,%rcx
  402160:	48 89 c2             	mov    %rax,%rdx
  402163:	48 8d 35 81 05 00 00 	lea    0x581(%rip),%rsi        # 4026eb <_IO_stdin_used+0x48b>
  40216a:	48 8d 3d bf 17 20 00 	lea    0x2017bf(%rip),%rdi        # 603930 <input_strings+0xf0>
  402171:	b8 00 00 00 00       	mov    $0x0,%eax
  402176:	e8 15 ec ff ff       	callq  400d90 <__isoc99_sscanf@plt>
  40217b:	89 45 fc             	mov    %eax,-0x4(%rbp)
  40217e:	83 7d fc 02          	cmpl   $0x2,-0x4(%rbp)
  402182:	75 39                	jne    4021bd <phase_defused+0x89>
  402184:	48 8d 45 a0          	lea    -0x60(%rbp),%rax
  402188:	48 8d 35 62 05 00 00 	lea    0x562(%rip),%rsi        # 4026f1 <_IO_stdin_used+0x491>
  40218f:	48 89 c7             	mov    %rax,%rdi
  402192:	e8 28 f5 ff ff       	callq  4016bf <strings_not_equal>
  402197:	85 c0                	test   %eax,%eax
  402199:	75 22                	jne    4021bd <phase_defused+0x89>
  40219b:	48 8d 3d 5e 05 00 00 	lea    0x55e(%rip),%rdi        # 402700 <_IO_stdin_used+0x4a0>
  4021a2:	e8 c9 ea ff ff       	callq  400c70 <puts@plt>
  4021a7:	48 8d 3d 7a 05 00 00 	lea    0x57a(%rip),%rdi        # 402728 <_IO_stdin_used+0x4c8>
  4021ae:	e8 bd ea ff ff       	callq  400c70 <puts@plt>
  4021b3:	b8 00 00 00 00       	mov    $0x0,%eax
  4021b8:	e8 6f f3 ff ff       	callq  40152c <secret_phase>
  4021bd:	48 8d 3d 9c 05 00 00 	lea    0x59c(%rip),%rdi        # 402760 <_IO_stdin_used+0x500>
  4021c4:	e8 a7 ea ff ff       	callq  400c70 <puts@plt>
  4021c9:	48 8d 3d c0 05 00 00 	lea    0x5c0(%rip),%rdi        # 402790 <_IO_stdin_used+0x530>
  4021d0:	e8 9b ea ff ff       	callq  400c70 <puts@plt>
  4021d5:	90                   	nop
  4021d6:	c9                   	leaveq 
  4021d7:	c3                   	retq   
  4021d8:	0f 1f 84 00 00 00 00 	nopl   0x0(%rax,%rax,1)
  4021df:	00 

00000000004021e0 <__libc_csu_init>:
  4021e0:	41 57                	push   %r15
  4021e2:	41 56                	push   %r14
  4021e4:	41 89 ff             	mov    %edi,%r15d
  4021e7:	41 55                	push   %r13
  4021e9:	41 54                	push   %r12
  4021eb:	4c 8d 25 16 0c 20 00 	lea    0x200c16(%rip),%r12        # 602e08 <__frame_dummy_init_array_entry>
  4021f2:	55                   	push   %rbp
  4021f3:	48 8d 2d 16 0c 20 00 	lea    0x200c16(%rip),%rbp        # 602e10 <__init_array_end>
  4021fa:	53                   	push   %rbx
  4021fb:	49 89 f6             	mov    %rsi,%r14
  4021fe:	49 89 d5             	mov    %rdx,%r13
  402201:	4c 29 e5             	sub    %r12,%rbp
  402204:	48 83 ec 08          	sub    $0x8,%rsp
  402208:	48 c1 fd 03          	sar    $0x3,%rbp
  40220c:	e8 ff e9 ff ff       	callq  400c10 <_init>
  402211:	48 85 ed             	test   %rbp,%rbp
  402214:	74 20                	je     402236 <__libc_csu_init+0x56>
  402216:	31 db                	xor    %ebx,%ebx
  402218:	0f 1f 84 00 00 00 00 	nopl   0x0(%rax,%rax,1)
  40221f:	00 
  402220:	4c 89 ea             	mov    %r13,%rdx
  402223:	4c 89 f6             	mov    %r14,%rsi
  402226:	44 89 ff             	mov    %r15d,%edi
  402229:	41 ff 14 dc          	callq  *(%r12,%rbx,8)
  40222d:	48 83 c3 01          	add    $0x1,%rbx
  402231:	48 39 dd             	cmp    %rbx,%rbp
  402234:	75 ea                	jne    402220 <__libc_csu_init+0x40>
  402236:	48 83 c4 08          	add    $0x8,%rsp
  40223a:	5b                   	pop    %rbx
  40223b:	5d                   	pop    %rbp
  40223c:	41 5c                	pop    %r12
  40223e:	41 5d                	pop    %r13
  402240:	41 5e                	pop    %r14
  402242:	41 5f                	pop    %r15
  402244:	c3                   	retq   
  402245:	90                   	nop
  402246:	66 2e 0f 1f 84 00 00 	nopw   %cs:0x0(%rax,%rax,1)
  40224d:	00 00 00 

0000000000402250 <__libc_csu_fini>:
  402250:	f3 c3                	repz retq 

Disassembly of section .fini:

0000000000402254 <_fini>:
  402254:	48 83 ec 08          	sub    $0x8,%rsp
  402258:	48 83 c4 08          	add    $0x8,%rsp
  40225c:	c3                   	retq   
